
Controle-Cabo_STM32F407ZGT6.elf:     file format elf32-littlearm

Sections:
Idx Name          Size      VMA       LMA       File off  Algn
  0 .isr_vector   00000188  08000000  08000000  00001000  2**0
                  CONTENTS, ALLOC, LOAD, READONLY, DATA
  1 .text         000057a0  08000188  08000188  00001188  2**3
                  CONTENTS, ALLOC, LOAD, READONLY, CODE
  2 .rodata       000000f4  08005928  08005928  00006928  2**2
                  CONTENTS, ALLOC, LOAD, READONLY, DATA
  3 .ARM.extab    00000000  08005a1c  08005a1c  0000700c  2**0
                  CONTENTS
  4 .ARM          00000008  08005a1c  08005a1c  00006a1c  2**2
                  CONTENTS, ALLOC, LOAD, READONLY, DATA
  5 .preinit_array 00000000  08005a24  08005a24  0000700c  2**0
                  CONTENTS, ALLOC, LOAD, DATA
  6 .init_array   00000004  08005a24  08005a24  00006a24  2**2
                  CONTENTS, ALLOC, LOAD, READONLY, DATA
  7 .fini_array   00000004  08005a28  08005a28  00006a28  2**2
                  CONTENTS, ALLOC, LOAD, READONLY, DATA
  8 .data         0000000c  20000000  08005a2c  00007000  2**2
                  CONTENTS, ALLOC, LOAD, DATA
  9 .ccmram       00000000  10000000  10000000  0000700c  2**0
                  CONTENTS
 10 .bss          00001cb4  20000010  20000010  00007010  2**3
                  ALLOC
 11 ._user_heap_stack 00000604  20001cc4  20001cc4  00007010  2**0
                  ALLOC
 12 .ARM.attributes 00000030  00000000  00000000  0000700c  2**0
                  CONTENTS, READONLY
 13 .comment      00000043  00000000  00000000  0000703c  2**0
                  CONTENTS, READONLY
 14 .debug_frame  000001ac  00000000  00000000  00007080  2**2
                  CONTENTS, READONLY, DEBUGGING, OCTETS

Disassembly of section .text:

08000188 <__do_global_dtors_aux>:
 8000188:	b510      	push	{r4, lr}
 800018a:	4c05      	ldr	r4, [pc, #20]	@ (80001a0 <__do_global_dtors_aux+0x18>)
 800018c:	7823      	ldrb	r3, [r4, #0]
 800018e:	b933      	cbnz	r3, 800019e <__do_global_dtors_aux+0x16>
 8000190:	4b04      	ldr	r3, [pc, #16]	@ (80001a4 <__do_global_dtors_aux+0x1c>)
 8000192:	b113      	cbz	r3, 800019a <__do_global_dtors_aux+0x12>
 8000194:	4804      	ldr	r0, [pc, #16]	@ (80001a8 <__do_global_dtors_aux+0x20>)
 8000196:	f3af 8000 	nop.w
 800019a:	2301      	movs	r3, #1
 800019c:	7023      	strb	r3, [r4, #0]
 800019e:	bd10      	pop	{r4, pc}
 80001a0:	20000010 	.word	0x20000010
 80001a4:	00000000 	.word	0x00000000
 80001a8:	08005910 	.word	0x08005910

080001ac <frame_dummy>:
 80001ac:	b508      	push	{r3, lr}
 80001ae:	4b03      	ldr	r3, [pc, #12]	@ (80001bc <frame_dummy+0x10>)
 80001b0:	b11b      	cbz	r3, 80001ba <frame_dummy+0xe>
 80001b2:	4903      	ldr	r1, [pc, #12]	@ (80001c0 <frame_dummy+0x14>)
 80001b4:	4803      	ldr	r0, [pc, #12]	@ (80001c4 <frame_dummy+0x18>)
 80001b6:	f3af 8000 	nop.w
 80001ba:	bd08      	pop	{r3, pc}
 80001bc:	00000000 	.word	0x00000000
 80001c0:	20000014 	.word	0x20000014
 80001c4:	08005910 	.word	0x08005910

080001c8 <CPU_IntDis>:
 80001c8:	b672      	cpsid	i
 80001ca:	4770      	bx	lr

080001cc <CPU_IntEn>:
 80001cc:	b662      	cpsie	i
 80001ce:	4770      	bx	lr

080001d0 <CPU_SR_Save>:
 80001d0:	b672      	cpsid	i
 80001d2:	b402      	push	{r1}
 80001d4:	f3ef 8111 	mrs	r1, BASEPRI
 80001d8:	f380 8811 	msr	BASEPRI, r0
 80001dc:	f3bf 8f4f 	dsb	sy
 80001e0:	f3bf 8f6f 	isb	sy
 80001e4:	4608      	mov	r0, r1
 80001e6:	bc02      	pop	{r1}
 80001e8:	b662      	cpsie	i
 80001ea:	4770      	bx	lr

080001ec <CPU_SR_Restore>:
 80001ec:	b672      	cpsid	i
 80001ee:	f380 8811 	msr	BASEPRI, r0
 80001f2:	f3bf 8f4f 	dsb	sy
 80001f6:	f3bf 8f6f 	isb	sy
 80001fa:	b662      	cpsie	i
 80001fc:	4770      	bx	lr

080001fe <CPU_WaitForInt>:
 80001fe:	bf30      	wfi
 8000200:	4770      	bx	lr

08000202 <CPU_WaitForExcept>:
 8000202:	bf20      	wfe
 8000204:	4770      	bx	lr

08000206 <CPU_CntLeadZeros>:
 8000206:	fab0 f080 	clz	r0, r0
 800020a:	4770      	bx	lr

0800020c <CPU_CntTrailZeros>:
 800020c:	fa90 f0a0 	rbit	r0, r0
 8000210:	fab0 f080 	clz	r0, r0
 8000214:	4770      	bx	lr

08000216 <CPU_RevBits>:
 8000216:	fa90 f0a0 	rbit	r0, r0
 800021a:	4770      	bx	lr

0800021c <OSStartHighRdy>:
 800021c:	b672      	cpsid	i
 800021e:	f64e 5022 	movw	r0, #60706	@ 0xed22
 8000222:	f2ce 0000 	movt	r0, #57344	@ 0xe000
 8000226:	f240 01ff 	movw	r1, #255	@ 0xff
 800022a:	f2c0 0100 	movt	r1, #0
 800022e:	7001      	strb	r1, [r0, #0]
 8000230:	2000      	movs	r0, #0
 8000232:	f380 8809 	msr	PSP, r0
 8000236:	f241 1014 	movw	r0, #4372	@ 0x1114
 800023a:	f2c2 0000 	movt	r0, #8192	@ 0x2000
 800023e:	6801      	ldr	r1, [r0, #0]
 8000240:	f381 8808 	msr	MSP, r1
 8000244:	f003 fb22 	bl	800388c <OSTaskSwHook>
 8000248:	f641 30e9 	movw	r0, #7145	@ 0x1be9
 800024c:	f2c2 0000 	movt	r0, #8192	@ 0x2000
 8000250:	f641 31e8 	movw	r1, #7144	@ 0x1be8
 8000254:	f2c2 0100 	movt	r1, #8192	@ 0x2000
 8000258:	780a      	ldrb	r2, [r1, #0]
 800025a:	7002      	strb	r2, [r0, #0]
 800025c:	f641 102c 	movw	r0, #6444	@ 0x192c
 8000260:	f2c2 0000 	movt	r0, #8192	@ 0x2000
 8000264:	f641 1128 	movw	r1, #6440	@ 0x1928
 8000268:	f2c2 0100 	movt	r1, #8192	@ 0x2000
 800026c:	680a      	ldr	r2, [r1, #0]
 800026e:	6002      	str	r2, [r0, #0]
 8000270:	6810      	ldr	r0, [r2, #0]
 8000272:	f380 8809 	msr	PSP, r0
 8000276:	f3ef 8014 	mrs	r0, CONTROL
 800027a:	f040 0002 	orr.w	r0, r0, #2
 800027e:	f020 0004 	bic.w	r0, r0, #4
 8000282:	f380 8814 	msr	CONTROL, r0
 8000286:	f3bf 8f6f 	isb	sy
 800028a:	e8bd 4ff0 	ldmia.w	sp!, {r4, r5, r6, r7, r8, r9, sl, fp, lr}
 800028e:	bc0f      	pop	{r0, r1, r2, r3}
 8000290:	e8bd 5000 	ldmia.w	sp!, {ip, lr}
 8000294:	bc06      	pop	{r1, r2}
 8000296:	b662      	cpsie	i
 8000298:	4708      	bx	r1

0800029a <OSCtxSw>:
 800029a:	4825      	ldr	r0, [pc, #148]	@ (8000330 <OS_CPU_PendSVHandler+0x8c>)
 800029c:	f04f 5180 	mov.w	r1, #268435456	@ 0x10000000
 80002a0:	6001      	str	r1, [r0, #0]
 80002a2:	4770      	bx	lr

080002a4 <OS_CPU_PendSVHandler>:
 80002a4:	b672      	cpsid	i
 80002a6:	f241 1210 	movw	r2, #4368	@ 0x1110
 80002aa:	f2c2 0200 	movt	r2, #8192	@ 0x2000
 80002ae:	6811      	ldr	r1, [r2, #0]
 80002b0:	f381 8811 	msr	BASEPRI, r1
 80002b4:	f3bf 8f4f 	dsb	sy
 80002b8:	f3bf 8f6f 	isb	sy
 80002bc:	b662      	cpsie	i
 80002be:	f3ef 8009 	mrs	r0, PSP
 80002c2:	f01e 0f10 	tst.w	lr, #16
 80002c6:	bf08      	it	eq
 80002c8:	ed20 8a10 	vstmdbeq	r0!, {s16-s31}
 80002cc:	e920 4ff0 	stmdb	r0!, {r4, r5, r6, r7, r8, r9, sl, fp, lr}
 80002d0:	f641 152c 	movw	r5, #6444	@ 0x192c
 80002d4:	f2c2 0500 	movt	r5, #8192	@ 0x2000
 80002d8:	6829      	ldr	r1, [r5, #0]
 80002da:	6008      	str	r0, [r1, #0]
 80002dc:	4674      	mov	r4, lr
 80002de:	f003 fad5 	bl	800388c <OSTaskSwHook>
 80002e2:	f641 30e9 	movw	r0, #7145	@ 0x1be9
 80002e6:	f2c2 0000 	movt	r0, #8192	@ 0x2000
 80002ea:	f641 31e8 	movw	r1, #7144	@ 0x1be8
 80002ee:	f2c2 0100 	movt	r1, #8192	@ 0x2000
 80002f2:	780a      	ldrb	r2, [r1, #0]
 80002f4:	7002      	strb	r2, [r0, #0]
 80002f6:	f641 1128 	movw	r1, #6440	@ 0x1928
 80002fa:	f2c2 0100 	movt	r1, #8192	@ 0x2000
 80002fe:	680a      	ldr	r2, [r1, #0]
 8000300:	602a      	str	r2, [r5, #0]
 8000302:	f044 0e04 	orr.w	lr, r4, #4
 8000306:	6810      	ldr	r0, [r2, #0]
 8000308:	e8b0 4ff0 	ldmia.w	r0!, {r4, r5, r6, r7, r8, r9, sl, fp, lr}
 800030c:	f01e 0f10 	tst.w	lr, #16
 8000310:	bf08      	it	eq
 8000312:	ecb0 8a10 	vldmiaeq	r0!, {s16-s31}
 8000316:	f380 8809 	msr	PSP, r0
 800031a:	f04f 0200 	mov.w	r2, #0
 800031e:	b672      	cpsid	i
 8000320:	f382 8811 	msr	BASEPRI, r2
 8000324:	f3bf 8f4f 	dsb	sy
 8000328:	f3bf 8f6f 	isb	sy
 800032c:	b662      	cpsie	i
 800032e:	4770      	bx	lr
 8000330:	e000ed04 	.word	0xe000ed04

08000334 <__aeabi_dmul>:
 8000334:	b570      	push	{r4, r5, r6, lr}
 8000336:	f04f 0cff 	mov.w	ip, #255	@ 0xff
 800033a:	f44c 6ce0 	orr.w	ip, ip, #1792	@ 0x700
 800033e:	ea1c 5411 	ands.w	r4, ip, r1, lsr #20
 8000342:	bf1d      	ittte	ne
 8000344:	ea1c 5513 	andsne.w	r5, ip, r3, lsr #20
 8000348:	ea94 0f0c 	teqne	r4, ip
 800034c:	ea95 0f0c 	teqne	r5, ip
 8000350:	f000 f8de 	bleq	8000510 <__aeabi_dmul+0x1dc>
 8000354:	442c      	add	r4, r5
 8000356:	ea81 0603 	eor.w	r6, r1, r3
 800035a:	ea21 514c 	bic.w	r1, r1, ip, lsl #21
 800035e:	ea23 534c 	bic.w	r3, r3, ip, lsl #21
 8000362:	ea50 3501 	orrs.w	r5, r0, r1, lsl #12
 8000366:	bf18      	it	ne
 8000368:	ea52 3503 	orrsne.w	r5, r2, r3, lsl #12
 800036c:	f441 1180 	orr.w	r1, r1, #1048576	@ 0x100000
 8000370:	f443 1380 	orr.w	r3, r3, #1048576	@ 0x100000
 8000374:	d038      	beq.n	80003e8 <__aeabi_dmul+0xb4>
 8000376:	fba0 ce02 	umull	ip, lr, r0, r2
 800037a:	f04f 0500 	mov.w	r5, #0
 800037e:	fbe1 e502 	umlal	lr, r5, r1, r2
 8000382:	f006 4200 	and.w	r2, r6, #2147483648	@ 0x80000000
 8000386:	fbe0 e503 	umlal	lr, r5, r0, r3
 800038a:	f04f 0600 	mov.w	r6, #0
 800038e:	fbe1 5603 	umlal	r5, r6, r1, r3
 8000392:	f09c 0f00 	teq	ip, #0
 8000396:	bf18      	it	ne
 8000398:	f04e 0e01 	orrne.w	lr, lr, #1
 800039c:	f1a4 04ff 	sub.w	r4, r4, #255	@ 0xff
 80003a0:	f5b6 7f00 	cmp.w	r6, #512	@ 0x200
 80003a4:	f564 7440 	sbc.w	r4, r4, #768	@ 0x300
 80003a8:	d204      	bcs.n	80003b4 <__aeabi_dmul+0x80>
 80003aa:	ea5f 0e4e 	movs.w	lr, lr, lsl #1
 80003ae:	416d      	adcs	r5, r5
 80003b0:	eb46 0606 	adc.w	r6, r6, r6
 80003b4:	ea42 21c6 	orr.w	r1, r2, r6, lsl #11
 80003b8:	ea41 5155 	orr.w	r1, r1, r5, lsr #21
 80003bc:	ea4f 20c5 	mov.w	r0, r5, lsl #11
 80003c0:	ea40 505e 	orr.w	r0, r0, lr, lsr #21
 80003c4:	ea4f 2ece 	mov.w	lr, lr, lsl #11
 80003c8:	f1b4 0cfd 	subs.w	ip, r4, #253	@ 0xfd
 80003cc:	bf88      	it	hi
 80003ce:	f5bc 6fe0 	cmphi.w	ip, #1792	@ 0x700
 80003d2:	d81e      	bhi.n	8000412 <__aeabi_dmul+0xde>
 80003d4:	f1be 4f00 	cmp.w	lr, #2147483648	@ 0x80000000
 80003d8:	bf08      	it	eq
 80003da:	ea5f 0e50 	movseq.w	lr, r0, lsr #1
 80003de:	f150 0000 	adcs.w	r0, r0, #0
 80003e2:	eb41 5104 	adc.w	r1, r1, r4, lsl #20
 80003e6:	bd70      	pop	{r4, r5, r6, pc}
 80003e8:	f006 4600 	and.w	r6, r6, #2147483648	@ 0x80000000
 80003ec:	ea46 0101 	orr.w	r1, r6, r1
 80003f0:	ea40 0002 	orr.w	r0, r0, r2
 80003f4:	ea81 0103 	eor.w	r1, r1, r3
 80003f8:	ebb4 045c 	subs.w	r4, r4, ip, lsr #1
 80003fc:	bfc2      	ittt	gt
 80003fe:	ebd4 050c 	rsbsgt	r5, r4, ip
 8000402:	ea41 5104 	orrgt.w	r1, r1, r4, lsl #20
 8000406:	bd70      	popgt	{r4, r5, r6, pc}
 8000408:	f441 1180 	orr.w	r1, r1, #1048576	@ 0x100000
 800040c:	f04f 0e00 	mov.w	lr, #0
 8000410:	3c01      	subs	r4, #1
 8000412:	f300 80ab 	bgt.w	800056c <__aeabi_dmul+0x238>
 8000416:	f114 0f36 	cmn.w	r4, #54	@ 0x36
 800041a:	bfde      	ittt	le
 800041c:	2000      	movle	r0, #0
 800041e:	f001 4100 	andle.w	r1, r1, #2147483648	@ 0x80000000
 8000422:	bd70      	pople	{r4, r5, r6, pc}
 8000424:	f1c4 0400 	rsb	r4, r4, #0
 8000428:	3c20      	subs	r4, #32
 800042a:	da35      	bge.n	8000498 <__aeabi_dmul+0x164>
 800042c:	340c      	adds	r4, #12
 800042e:	dc1b      	bgt.n	8000468 <__aeabi_dmul+0x134>
 8000430:	f104 0414 	add.w	r4, r4, #20
 8000434:	f1c4 0520 	rsb	r5, r4, #32
 8000438:	fa00 f305 	lsl.w	r3, r0, r5
 800043c:	fa20 f004 	lsr.w	r0, r0, r4
 8000440:	fa01 f205 	lsl.w	r2, r1, r5
 8000444:	ea40 0002 	orr.w	r0, r0, r2
 8000448:	f001 4200 	and.w	r2, r1, #2147483648	@ 0x80000000
 800044c:	f021 4100 	bic.w	r1, r1, #2147483648	@ 0x80000000
 8000450:	eb10 70d3 	adds.w	r0, r0, r3, lsr #31
 8000454:	fa21 f604 	lsr.w	r6, r1, r4
 8000458:	eb42 0106 	adc.w	r1, r2, r6
 800045c:	ea5e 0e43 	orrs.w	lr, lr, r3, lsl #1
 8000460:	bf08      	it	eq
 8000462:	ea20 70d3 	biceq.w	r0, r0, r3, lsr #31
 8000466:	bd70      	pop	{r4, r5, r6, pc}
 8000468:	f1c4 040c 	rsb	r4, r4, #12
 800046c:	f1c4 0520 	rsb	r5, r4, #32
 8000470:	fa00 f304 	lsl.w	r3, r0, r4
 8000474:	fa20 f005 	lsr.w	r0, r0, r5
 8000478:	fa01 f204 	lsl.w	r2, r1, r4
 800047c:	ea40 0002 	orr.w	r0, r0, r2
 8000480:	f001 4100 	and.w	r1, r1, #2147483648	@ 0x80000000
 8000484:	eb10 70d3 	adds.w	r0, r0, r3, lsr #31
 8000488:	f141 0100 	adc.w	r1, r1, #0
 800048c:	ea5e 0e43 	orrs.w	lr, lr, r3, lsl #1
 8000490:	bf08      	it	eq
 8000492:	ea20 70d3 	biceq.w	r0, r0, r3, lsr #31
 8000496:	bd70      	pop	{r4, r5, r6, pc}
 8000498:	f1c4 0520 	rsb	r5, r4, #32
 800049c:	fa00 f205 	lsl.w	r2, r0, r5
 80004a0:	ea4e 0e02 	orr.w	lr, lr, r2
 80004a4:	fa20 f304 	lsr.w	r3, r0, r4
 80004a8:	fa01 f205 	lsl.w	r2, r1, r5
 80004ac:	ea43 0302 	orr.w	r3, r3, r2
 80004b0:	fa21 f004 	lsr.w	r0, r1, r4
 80004b4:	f001 4100 	and.w	r1, r1, #2147483648	@ 0x80000000
 80004b8:	fa21 f204 	lsr.w	r2, r1, r4
 80004bc:	ea20 0002 	bic.w	r0, r0, r2
 80004c0:	eb00 70d3 	add.w	r0, r0, r3, lsr #31
 80004c4:	ea5e 0e43 	orrs.w	lr, lr, r3, lsl #1
 80004c8:	bf08      	it	eq
 80004ca:	ea20 70d3 	biceq.w	r0, r0, r3, lsr #31
 80004ce:	bd70      	pop	{r4, r5, r6, pc}
 80004d0:	f094 0f00 	teq	r4, #0
 80004d4:	d10f      	bne.n	80004f6 <__aeabi_dmul+0x1c2>
 80004d6:	f001 4600 	and.w	r6, r1, #2147483648	@ 0x80000000
 80004da:	0040      	lsls	r0, r0, #1
 80004dc:	eb41 0101 	adc.w	r1, r1, r1
 80004e0:	f411 1f80 	tst.w	r1, #1048576	@ 0x100000
 80004e4:	bf08      	it	eq
 80004e6:	3c01      	subeq	r4, #1
 80004e8:	d0f7      	beq.n	80004da <__aeabi_dmul+0x1a6>
 80004ea:	ea41 0106 	orr.w	r1, r1, r6
 80004ee:	f095 0f00 	teq	r5, #0
 80004f2:	bf18      	it	ne
 80004f4:	4770      	bxne	lr
 80004f6:	f003 4600 	and.w	r6, r3, #2147483648	@ 0x80000000
 80004fa:	0052      	lsls	r2, r2, #1
 80004fc:	eb43 0303 	adc.w	r3, r3, r3
 8000500:	f413 1f80 	tst.w	r3, #1048576	@ 0x100000
 8000504:	bf08      	it	eq
 8000506:	3d01      	subeq	r5, #1
 8000508:	d0f7      	beq.n	80004fa <__aeabi_dmul+0x1c6>
 800050a:	ea43 0306 	orr.w	r3, r3, r6
 800050e:	4770      	bx	lr
 8000510:	ea94 0f0c 	teq	r4, ip
 8000514:	ea0c 5513 	and.w	r5, ip, r3, lsr #20
 8000518:	bf18      	it	ne
 800051a:	ea95 0f0c 	teqne	r5, ip
 800051e:	d00c      	beq.n	800053a <__aeabi_dmul+0x206>
 8000520:	ea50 0641 	orrs.w	r6, r0, r1, lsl #1
 8000524:	bf18      	it	ne
 8000526:	ea52 0643 	orrsne.w	r6, r2, r3, lsl #1
 800052a:	d1d1      	bne.n	80004d0 <__aeabi_dmul+0x19c>
 800052c:	ea81 0103 	eor.w	r1, r1, r3
 8000530:	f001 4100 	and.w	r1, r1, #2147483648	@ 0x80000000
 8000534:	f04f 0000 	mov.w	r0, #0
 8000538:	bd70      	pop	{r4, r5, r6, pc}
 800053a:	ea50 0641 	orrs.w	r6, r0, r1, lsl #1
 800053e:	bf06      	itte	eq
 8000540:	4610      	moveq	r0, r2
 8000542:	4619      	moveq	r1, r3
 8000544:	ea52 0643 	orrsne.w	r6, r2, r3, lsl #1
 8000548:	d019      	beq.n	800057e <__aeabi_dmul+0x24a>
 800054a:	ea94 0f0c 	teq	r4, ip
 800054e:	d102      	bne.n	8000556 <__aeabi_dmul+0x222>
 8000550:	ea50 3601 	orrs.w	r6, r0, r1, lsl #12
 8000554:	d113      	bne.n	800057e <__aeabi_dmul+0x24a>
 8000556:	ea95 0f0c 	teq	r5, ip
 800055a:	d105      	bne.n	8000568 <__aeabi_dmul+0x234>
 800055c:	ea52 3603 	orrs.w	r6, r2, r3, lsl #12
 8000560:	bf1c      	itt	ne
 8000562:	4610      	movne	r0, r2
 8000564:	4619      	movne	r1, r3
 8000566:	d10a      	bne.n	800057e <__aeabi_dmul+0x24a>
 8000568:	ea81 0103 	eor.w	r1, r1, r3
 800056c:	f001 4100 	and.w	r1, r1, #2147483648	@ 0x80000000
 8000570:	f041 41fe 	orr.w	r1, r1, #2130706432	@ 0x7f000000
 8000574:	f441 0170 	orr.w	r1, r1, #15728640	@ 0xf00000
 8000578:	f04f 0000 	mov.w	r0, #0
 800057c:	bd70      	pop	{r4, r5, r6, pc}
 800057e:	f041 41fe 	orr.w	r1, r1, #2130706432	@ 0x7f000000
 8000582:	f441 0178 	orr.w	r1, r1, #16252928	@ 0xf80000
 8000586:	bd70      	pop	{r4, r5, r6, pc}

08000588 <__aeabi_drsub>:
 8000588:	f081 4100 	eor.w	r1, r1, #2147483648	@ 0x80000000
 800058c:	e002      	b.n	8000594 <__adddf3>
 800058e:	bf00      	nop

08000590 <__aeabi_dsub>:
 8000590:	f083 4300 	eor.w	r3, r3, #2147483648	@ 0x80000000

08000594 <__adddf3>:
 8000594:	b530      	push	{r4, r5, lr}
 8000596:	ea4f 0441 	mov.w	r4, r1, lsl #1
 800059a:	ea4f 0543 	mov.w	r5, r3, lsl #1
 800059e:	ea94 0f05 	teq	r4, r5
 80005a2:	bf08      	it	eq
 80005a4:	ea90 0f02 	teqeq	r0, r2
 80005a8:	bf1f      	itttt	ne
 80005aa:	ea54 0c00 	orrsne.w	ip, r4, r0
 80005ae:	ea55 0c02 	orrsne.w	ip, r5, r2
 80005b2:	ea7f 5c64 	mvnsne.w	ip, r4, asr #21
 80005b6:	ea7f 5c65 	mvnsne.w	ip, r5, asr #21
 80005ba:	f000 80e2 	beq.w	8000782 <__adddf3+0x1ee>
 80005be:	ea4f 5454 	mov.w	r4, r4, lsr #21
 80005c2:	ebd4 5555 	rsbs	r5, r4, r5, lsr #21
 80005c6:	bfb8      	it	lt
 80005c8:	426d      	neglt	r5, r5
 80005ca:	dd0c      	ble.n	80005e6 <__adddf3+0x52>
 80005cc:	442c      	add	r4, r5
 80005ce:	ea80 0202 	eor.w	r2, r0, r2
 80005d2:	ea81 0303 	eor.w	r3, r1, r3
 80005d6:	ea82 0000 	eor.w	r0, r2, r0
 80005da:	ea83 0101 	eor.w	r1, r3, r1
 80005de:	ea80 0202 	eor.w	r2, r0, r2
 80005e2:	ea81 0303 	eor.w	r3, r1, r3
 80005e6:	2d36      	cmp	r5, #54	@ 0x36
 80005e8:	bf88      	it	hi
 80005ea:	bd30      	pophi	{r4, r5, pc}
 80005ec:	f011 4f00 	tst.w	r1, #2147483648	@ 0x80000000
 80005f0:	ea4f 3101 	mov.w	r1, r1, lsl #12
 80005f4:	f44f 1c80 	mov.w	ip, #1048576	@ 0x100000
 80005f8:	ea4c 3111 	orr.w	r1, ip, r1, lsr #12
 80005fc:	d002      	beq.n	8000604 <__adddf3+0x70>
 80005fe:	4240      	negs	r0, r0
 8000600:	eb61 0141 	sbc.w	r1, r1, r1, lsl #1
 8000604:	f013 4f00 	tst.w	r3, #2147483648	@ 0x80000000
 8000608:	ea4f 3303 	mov.w	r3, r3, lsl #12
 800060c:	ea4c 3313 	orr.w	r3, ip, r3, lsr #12
 8000610:	d002      	beq.n	8000618 <__adddf3+0x84>
 8000612:	4252      	negs	r2, r2
 8000614:	eb63 0343 	sbc.w	r3, r3, r3, lsl #1
 8000618:	ea94 0f05 	teq	r4, r5
 800061c:	f000 80a7 	beq.w	800076e <__adddf3+0x1da>
 8000620:	f1a4 0401 	sub.w	r4, r4, #1
 8000624:	f1d5 0e20 	rsbs	lr, r5, #32
 8000628:	db0d      	blt.n	8000646 <__adddf3+0xb2>
 800062a:	fa02 fc0e 	lsl.w	ip, r2, lr
 800062e:	fa22 f205 	lsr.w	r2, r2, r5
 8000632:	1880      	adds	r0, r0, r2
 8000634:	f141 0100 	adc.w	r1, r1, #0
 8000638:	fa03 f20e 	lsl.w	r2, r3, lr
 800063c:	1880      	adds	r0, r0, r2
 800063e:	fa43 f305 	asr.w	r3, r3, r5
 8000642:	4159      	adcs	r1, r3
 8000644:	e00e      	b.n	8000664 <__adddf3+0xd0>
 8000646:	f1a5 0520 	sub.w	r5, r5, #32
 800064a:	f10e 0e20 	add.w	lr, lr, #32
 800064e:	2a01      	cmp	r2, #1
 8000650:	fa03 fc0e 	lsl.w	ip, r3, lr
 8000654:	bf28      	it	cs
 8000656:	f04c 0c02 	orrcs.w	ip, ip, #2
 800065a:	fa43 f305 	asr.w	r3, r3, r5
 800065e:	18c0      	adds	r0, r0, r3
 8000660:	eb51 71e3 	adcs.w	r1, r1, r3, asr #31
 8000664:	f001 4500 	and.w	r5, r1, #2147483648	@ 0x80000000
 8000668:	d507      	bpl.n	800067a <__adddf3+0xe6>
 800066a:	f04f 0e00 	mov.w	lr, #0
 800066e:	f1dc 0c00 	rsbs	ip, ip, #0
 8000672:	eb7e 0000 	sbcs.w	r0, lr, r0
 8000676:	eb6e 0101 	sbc.w	r1, lr, r1
 800067a:	f5b1 1f80 	cmp.w	r1, #1048576	@ 0x100000
 800067e:	d31b      	bcc.n	80006b8 <__adddf3+0x124>
 8000680:	f5b1 1f00 	cmp.w	r1, #2097152	@ 0x200000
 8000684:	d30c      	bcc.n	80006a0 <__adddf3+0x10c>
 8000686:	0849      	lsrs	r1, r1, #1
 8000688:	ea5f 0030 	movs.w	r0, r0, rrx
 800068c:	ea4f 0c3c 	mov.w	ip, ip, rrx
 8000690:	f104 0401 	add.w	r4, r4, #1
 8000694:	ea4f 5244 	mov.w	r2, r4, lsl #21
 8000698:	f512 0f80 	cmn.w	r2, #4194304	@ 0x400000
 800069c:	f080 809a 	bcs.w	80007d4 <__adddf3+0x240>
 80006a0:	f1bc 4f00 	cmp.w	ip, #2147483648	@ 0x80000000
 80006a4:	bf08      	it	eq
 80006a6:	ea5f 0c50 	movseq.w	ip, r0, lsr #1
 80006aa:	f150 0000 	adcs.w	r0, r0, #0
 80006ae:	eb41 5104 	adc.w	r1, r1, r4, lsl #20
 80006b2:	ea41 0105 	orr.w	r1, r1, r5
 80006b6:	bd30      	pop	{r4, r5, pc}
 80006b8:	ea5f 0c4c 	movs.w	ip, ip, lsl #1
 80006bc:	4140      	adcs	r0, r0
 80006be:	eb41 0101 	adc.w	r1, r1, r1
 80006c2:	3c01      	subs	r4, #1
 80006c4:	bf28      	it	cs
 80006c6:	f5b1 1f80 	cmpcs.w	r1, #1048576	@ 0x100000
 80006ca:	d2e9      	bcs.n	80006a0 <__adddf3+0x10c>
 80006cc:	f091 0f00 	teq	r1, #0
 80006d0:	bf04      	itt	eq
 80006d2:	4601      	moveq	r1, r0
 80006d4:	2000      	moveq	r0, #0
 80006d6:	fab1 f381 	clz	r3, r1
 80006da:	bf08      	it	eq
 80006dc:	3320      	addeq	r3, #32
 80006de:	f1a3 030b 	sub.w	r3, r3, #11
 80006e2:	f1b3 0220 	subs.w	r2, r3, #32
 80006e6:	da0c      	bge.n	8000702 <__adddf3+0x16e>
 80006e8:	320c      	adds	r2, #12
 80006ea:	dd08      	ble.n	80006fe <__adddf3+0x16a>
 80006ec:	f102 0c14 	add.w	ip, r2, #20
 80006f0:	f1c2 020c 	rsb	r2, r2, #12
 80006f4:	fa01 f00c 	lsl.w	r0, r1, ip
 80006f8:	fa21 f102 	lsr.w	r1, r1, r2
 80006fc:	e00c      	b.n	8000718 <__adddf3+0x184>
 80006fe:	f102 0214 	add.w	r2, r2, #20
 8000702:	bfd8      	it	le
 8000704:	f1c2 0c20 	rsble	ip, r2, #32
 8000708:	fa01 f102 	lsl.w	r1, r1, r2
 800070c:	fa20 fc0c 	lsr.w	ip, r0, ip
 8000710:	bfdc      	itt	le
 8000712:	ea41 010c 	orrle.w	r1, r1, ip
 8000716:	4090      	lslle	r0, r2
 8000718:	1ae4      	subs	r4, r4, r3
 800071a:	bfa2      	ittt	ge
 800071c:	eb01 5104 	addge.w	r1, r1, r4, lsl #20
 8000720:	4329      	orrge	r1, r5
 8000722:	bd30      	popge	{r4, r5, pc}
 8000724:	ea6f 0404 	mvn.w	r4, r4
 8000728:	3c1f      	subs	r4, #31
 800072a:	da1c      	bge.n	8000766 <__adddf3+0x1d2>
 800072c:	340c      	adds	r4, #12
 800072e:	dc0e      	bgt.n	800074e <__adddf3+0x1ba>
 8000730:	f104 0414 	add.w	r4, r4, #20
 8000734:	f1c4 0220 	rsb	r2, r4, #32
 8000738:	fa20 f004 	lsr.w	r0, r0, r4
 800073c:	fa01 f302 	lsl.w	r3, r1, r2
 8000740:	ea40 0003 	orr.w	r0, r0, r3
 8000744:	fa21 f304 	lsr.w	r3, r1, r4
 8000748:	ea45 0103 	orr.w	r1, r5, r3
 800074c:	bd30      	pop	{r4, r5, pc}
 800074e:	f1c4 040c 	rsb	r4, r4, #12
 8000752:	f1c4 0220 	rsb	r2, r4, #32
 8000756:	fa20 f002 	lsr.w	r0, r0, r2
 800075a:	fa01 f304 	lsl.w	r3, r1, r4
 800075e:	ea40 0003 	orr.w	r0, r0, r3
 8000762:	4629      	mov	r1, r5
 8000764:	bd30      	pop	{r4, r5, pc}
 8000766:	fa21 f004 	lsr.w	r0, r1, r4
 800076a:	4629      	mov	r1, r5
 800076c:	bd30      	pop	{r4, r5, pc}
 800076e:	f094 0f00 	teq	r4, #0
 8000772:	f483 1380 	eor.w	r3, r3, #1048576	@ 0x100000
 8000776:	bf06      	itte	eq
 8000778:	f481 1180 	eoreq.w	r1, r1, #1048576	@ 0x100000
 800077c:	3401      	addeq	r4, #1
 800077e:	3d01      	subne	r5, #1
 8000780:	e74e      	b.n	8000620 <__adddf3+0x8c>
 8000782:	ea7f 5c64 	mvns.w	ip, r4, asr #21
 8000786:	bf18      	it	ne
 8000788:	ea7f 5c65 	mvnsne.w	ip, r5, asr #21
 800078c:	d029      	beq.n	80007e2 <__adddf3+0x24e>
 800078e:	ea94 0f05 	teq	r4, r5
 8000792:	bf08      	it	eq
 8000794:	ea90 0f02 	teqeq	r0, r2
 8000798:	d005      	beq.n	80007a6 <__adddf3+0x212>
 800079a:	ea54 0c00 	orrs.w	ip, r4, r0
 800079e:	bf04      	itt	eq
 80007a0:	4619      	moveq	r1, r3
 80007a2:	4610      	moveq	r0, r2
 80007a4:	bd30      	pop	{r4, r5, pc}
 80007a6:	ea91 0f03 	teq	r1, r3
 80007aa:	bf1e      	ittt	ne
 80007ac:	2100      	movne	r1, #0
 80007ae:	2000      	movne	r0, #0
 80007b0:	bd30      	popne	{r4, r5, pc}
 80007b2:	ea5f 5c54 	movs.w	ip, r4, lsr #21
 80007b6:	d105      	bne.n	80007c4 <__adddf3+0x230>
 80007b8:	0040      	lsls	r0, r0, #1
 80007ba:	4149      	adcs	r1, r1
 80007bc:	bf28      	it	cs
 80007be:	f041 4100 	orrcs.w	r1, r1, #2147483648	@ 0x80000000
 80007c2:	bd30      	pop	{r4, r5, pc}
 80007c4:	f514 0480 	adds.w	r4, r4, #4194304	@ 0x400000
 80007c8:	bf3c      	itt	cc
 80007ca:	f501 1180 	addcc.w	r1, r1, #1048576	@ 0x100000
 80007ce:	bd30      	popcc	{r4, r5, pc}
 80007d0:	f001 4500 	and.w	r5, r1, #2147483648	@ 0x80000000
 80007d4:	f045 41fe 	orr.w	r1, r5, #2130706432	@ 0x7f000000
 80007d8:	f441 0170 	orr.w	r1, r1, #15728640	@ 0xf00000
 80007dc:	f04f 0000 	mov.w	r0, #0
 80007e0:	bd30      	pop	{r4, r5, pc}
 80007e2:	ea7f 5c64 	mvns.w	ip, r4, asr #21
 80007e6:	bf1a      	itte	ne
 80007e8:	4619      	movne	r1, r3
 80007ea:	4610      	movne	r0, r2
 80007ec:	ea7f 5c65 	mvnseq.w	ip, r5, asr #21
 80007f0:	bf1c      	itt	ne
 80007f2:	460b      	movne	r3, r1
 80007f4:	4602      	movne	r2, r0
 80007f6:	ea50 3401 	orrs.w	r4, r0, r1, lsl #12
 80007fa:	bf06      	itte	eq
 80007fc:	ea52 3503 	orrseq.w	r5, r2, r3, lsl #12
 8000800:	ea91 0f03 	teqeq	r1, r3
 8000804:	f441 2100 	orrne.w	r1, r1, #524288	@ 0x80000
 8000808:	bd30      	pop	{r4, r5, pc}
 800080a:	bf00      	nop

0800080c <__aeabi_ui2d>:
 800080c:	f090 0f00 	teq	r0, #0
 8000810:	bf04      	itt	eq
 8000812:	2100      	moveq	r1, #0
 8000814:	4770      	bxeq	lr
 8000816:	b530      	push	{r4, r5, lr}
 8000818:	f44f 6480 	mov.w	r4, #1024	@ 0x400
 800081c:	f104 0432 	add.w	r4, r4, #50	@ 0x32
 8000820:	f04f 0500 	mov.w	r5, #0
 8000824:	f04f 0100 	mov.w	r1, #0
 8000828:	e750      	b.n	80006cc <__adddf3+0x138>
 800082a:	bf00      	nop

0800082c <__aeabi_i2d>:
 800082c:	f090 0f00 	teq	r0, #0
 8000830:	bf04      	itt	eq
 8000832:	2100      	moveq	r1, #0
 8000834:	4770      	bxeq	lr
 8000836:	b530      	push	{r4, r5, lr}
 8000838:	f44f 6480 	mov.w	r4, #1024	@ 0x400
 800083c:	f104 0432 	add.w	r4, r4, #50	@ 0x32
 8000840:	f010 4500 	ands.w	r5, r0, #2147483648	@ 0x80000000
 8000844:	bf48      	it	mi
 8000846:	4240      	negmi	r0, r0
 8000848:	f04f 0100 	mov.w	r1, #0
 800084c:	e73e      	b.n	80006cc <__adddf3+0x138>
 800084e:	bf00      	nop

08000850 <__aeabi_f2d>:
 8000850:	0042      	lsls	r2, r0, #1
 8000852:	ea4f 01e2 	mov.w	r1, r2, asr #3
 8000856:	ea4f 0131 	mov.w	r1, r1, rrx
 800085a:	ea4f 7002 	mov.w	r0, r2, lsl #28
 800085e:	bf1f      	itttt	ne
 8000860:	f012 437f 	andsne.w	r3, r2, #4278190080	@ 0xff000000
 8000864:	f093 4f7f 	teqne	r3, #4278190080	@ 0xff000000
 8000868:	f081 5160 	eorne.w	r1, r1, #939524096	@ 0x38000000
 800086c:	4770      	bxne	lr
 800086e:	f032 427f 	bics.w	r2, r2, #4278190080	@ 0xff000000
 8000872:	bf08      	it	eq
 8000874:	4770      	bxeq	lr
 8000876:	f093 4f7f 	teq	r3, #4278190080	@ 0xff000000
 800087a:	bf04      	itt	eq
 800087c:	f441 2100 	orreq.w	r1, r1, #524288	@ 0x80000
 8000880:	4770      	bxeq	lr
 8000882:	b530      	push	{r4, r5, lr}
 8000884:	f44f 7460 	mov.w	r4, #896	@ 0x380
 8000888:	f001 4500 	and.w	r5, r1, #2147483648	@ 0x80000000
 800088c:	f021 4100 	bic.w	r1, r1, #2147483648	@ 0x80000000
 8000890:	e71c      	b.n	80006cc <__adddf3+0x138>
 8000892:	bf00      	nop

08000894 <__aeabi_ul2d>:
 8000894:	ea50 0201 	orrs.w	r2, r0, r1
 8000898:	bf08      	it	eq
 800089a:	4770      	bxeq	lr
 800089c:	b530      	push	{r4, r5, lr}
 800089e:	f04f 0500 	mov.w	r5, #0
 80008a2:	e00a      	b.n	80008ba <__aeabi_l2d+0x16>

080008a4 <__aeabi_l2d>:
 80008a4:	ea50 0201 	orrs.w	r2, r0, r1
 80008a8:	bf08      	it	eq
 80008aa:	4770      	bxeq	lr
 80008ac:	b530      	push	{r4, r5, lr}
 80008ae:	f011 4500 	ands.w	r5, r1, #2147483648	@ 0x80000000
 80008b2:	d502      	bpl.n	80008ba <__aeabi_l2d+0x16>
 80008b4:	4240      	negs	r0, r0
 80008b6:	eb61 0141 	sbc.w	r1, r1, r1, lsl #1
 80008ba:	f44f 6480 	mov.w	r4, #1024	@ 0x400
 80008be:	f104 0432 	add.w	r4, r4, #50	@ 0x32
 80008c2:	ea5f 5c91 	movs.w	ip, r1, lsr #22
 80008c6:	f43f aed8 	beq.w	800067a <__adddf3+0xe6>
 80008ca:	f04f 0203 	mov.w	r2, #3
 80008ce:	ea5f 0cdc 	movs.w	ip, ip, lsr #3
 80008d2:	bf18      	it	ne
 80008d4:	3203      	addne	r2, #3
 80008d6:	ea5f 0cdc 	movs.w	ip, ip, lsr #3
 80008da:	bf18      	it	ne
 80008dc:	3203      	addne	r2, #3
 80008de:	eb02 02dc 	add.w	r2, r2, ip, lsr #3
 80008e2:	f1c2 0320 	rsb	r3, r2, #32
 80008e6:	fa00 fc03 	lsl.w	ip, r0, r3
 80008ea:	fa20 f002 	lsr.w	r0, r0, r2
 80008ee:	fa01 fe03 	lsl.w	lr, r1, r3
 80008f2:	ea40 000e 	orr.w	r0, r0, lr
 80008f6:	fa21 f102 	lsr.w	r1, r1, r2
 80008fa:	4414      	add	r4, r2
 80008fc:	e6bd      	b.n	800067a <__adddf3+0xe6>
 80008fe:	bf00      	nop

08000900 <__aeabi_d2f>:
 8000900:	ea4f 0241 	mov.w	r2, r1, lsl #1
 8000904:	f1b2 43e0 	subs.w	r3, r2, #1879048192	@ 0x70000000
 8000908:	bf24      	itt	cs
 800090a:	f5b3 1c00 	subscs.w	ip, r3, #2097152	@ 0x200000
 800090e:	f1dc 5cfe 	rsbscs	ip, ip, #532676608	@ 0x1fc00000
 8000912:	d90d      	bls.n	8000930 <__aeabi_d2f+0x30>
 8000914:	f001 4c00 	and.w	ip, r1, #2147483648	@ 0x80000000
 8000918:	ea4f 02c0 	mov.w	r2, r0, lsl #3
 800091c:	ea4c 7050 	orr.w	r0, ip, r0, lsr #29
 8000920:	f1b2 4f00 	cmp.w	r2, #2147483648	@ 0x80000000
 8000924:	eb40 0083 	adc.w	r0, r0, r3, lsl #2
 8000928:	bf08      	it	eq
 800092a:	f020 0001 	biceq.w	r0, r0, #1
 800092e:	4770      	bx	lr
 8000930:	f011 4f80 	tst.w	r1, #1073741824	@ 0x40000000
 8000934:	d121      	bne.n	800097a <__aeabi_d2f+0x7a>
 8000936:	f113 7238 	adds.w	r2, r3, #48234496	@ 0x2e00000
 800093a:	bfbc      	itt	lt
 800093c:	f001 4000 	andlt.w	r0, r1, #2147483648	@ 0x80000000
 8000940:	4770      	bxlt	lr
 8000942:	f441 1180 	orr.w	r1, r1, #1048576	@ 0x100000
 8000946:	ea4f 5252 	mov.w	r2, r2, lsr #21
 800094a:	f1c2 0218 	rsb	r2, r2, #24
 800094e:	f1c2 0c20 	rsb	ip, r2, #32
 8000952:	fa10 f30c 	lsls.w	r3, r0, ip
 8000956:	fa20 f002 	lsr.w	r0, r0, r2
 800095a:	bf18      	it	ne
 800095c:	f040 0001 	orrne.w	r0, r0, #1
 8000960:	ea4f 23c1 	mov.w	r3, r1, lsl #11
 8000964:	ea4f 23d3 	mov.w	r3, r3, lsr #11
 8000968:	fa03 fc0c 	lsl.w	ip, r3, ip
 800096c:	ea40 000c 	orr.w	r0, r0, ip
 8000970:	fa23 f302 	lsr.w	r3, r3, r2
 8000974:	ea4f 0343 	mov.w	r3, r3, lsl #1
 8000978:	e7cc      	b.n	8000914 <__aeabi_d2f+0x14>
 800097a:	ea7f 5362 	mvns.w	r3, r2, asr #21
 800097e:	d107      	bne.n	8000990 <__aeabi_d2f+0x90>
 8000980:	ea50 3301 	orrs.w	r3, r0, r1, lsl #12
 8000984:	bf1e      	ittt	ne
 8000986:	f04f 40fe 	movne.w	r0, #2130706432	@ 0x7f000000
 800098a:	f440 0040 	orrne.w	r0, r0, #12582912	@ 0xc00000
 800098e:	4770      	bxne	lr
 8000990:	f001 4000 	and.w	r0, r1, #2147483648	@ 0x80000000
 8000994:	f040 40fe 	orr.w	r0, r0, #2130706432	@ 0x7f000000
 8000998:	f440 0000 	orr.w	r0, r0, #8388608	@ 0x800000
 800099c:	4770      	bx	lr
 800099e:	bf00      	nop

080009a0 <__aeabi_uldivmod>:
 80009a0:	b953      	cbnz	r3, 80009b8 <__aeabi_uldivmod+0x18>
 80009a2:	b94a      	cbnz	r2, 80009b8 <__aeabi_uldivmod+0x18>
 80009a4:	2900      	cmp	r1, #0
 80009a6:	bf08      	it	eq
 80009a8:	2800      	cmpeq	r0, #0
 80009aa:	bf1c      	itt	ne
 80009ac:	f04f 31ff 	movne.w	r1, #4294967295
 80009b0:	f04f 30ff 	movne.w	r0, #4294967295
 80009b4:	f000 b96a 	b.w	8000c8c <__aeabi_idiv0>
 80009b8:	f1ad 0c08 	sub.w	ip, sp, #8
 80009bc:	e96d ce04 	strd	ip, lr, [sp, #-16]!
 80009c0:	f000 f806 	bl	80009d0 <__udivmoddi4>
 80009c4:	f8dd e004 	ldr.w	lr, [sp, #4]
 80009c8:	e9dd 2302 	ldrd	r2, r3, [sp, #8]
 80009cc:	b004      	add	sp, #16
 80009ce:	4770      	bx	lr

080009d0 <__udivmoddi4>:
 80009d0:	e92d 47f0 	stmdb	sp!, {r4, r5, r6, r7, r8, r9, sl, lr}
 80009d4:	9d08      	ldr	r5, [sp, #32]
 80009d6:	460c      	mov	r4, r1
 80009d8:	2b00      	cmp	r3, #0
 80009da:	d14e      	bne.n	8000a7a <__udivmoddi4+0xaa>
 80009dc:	4694      	mov	ip, r2
 80009de:	458c      	cmp	ip, r1
 80009e0:	4686      	mov	lr, r0
 80009e2:	fab2 f282 	clz	r2, r2
 80009e6:	d962      	bls.n	8000aae <__udivmoddi4+0xde>
 80009e8:	b14a      	cbz	r2, 80009fe <__udivmoddi4+0x2e>
 80009ea:	f1c2 0320 	rsb	r3, r2, #32
 80009ee:	4091      	lsls	r1, r2
 80009f0:	fa20 f303 	lsr.w	r3, r0, r3
 80009f4:	fa0c fc02 	lsl.w	ip, ip, r2
 80009f8:	4319      	orrs	r1, r3
 80009fa:	fa00 fe02 	lsl.w	lr, r0, r2
 80009fe:	ea4f 471c 	mov.w	r7, ip, lsr #16
 8000a02:	fa1f f68c 	uxth.w	r6, ip
 8000a06:	fbb1 f4f7 	udiv	r4, r1, r7
 8000a0a:	ea4f 431e 	mov.w	r3, lr, lsr #16
 8000a0e:	fb07 1114 	mls	r1, r7, r4, r1
 8000a12:	ea43 4301 	orr.w	r3, r3, r1, lsl #16
 8000a16:	fb04 f106 	mul.w	r1, r4, r6
 8000a1a:	4299      	cmp	r1, r3
 8000a1c:	d90a      	bls.n	8000a34 <__udivmoddi4+0x64>
 8000a1e:	eb1c 0303 	adds.w	r3, ip, r3
 8000a22:	f104 30ff 	add.w	r0, r4, #4294967295
 8000a26:	f080 8112 	bcs.w	8000c4e <__udivmoddi4+0x27e>
 8000a2a:	4299      	cmp	r1, r3
 8000a2c:	f240 810f 	bls.w	8000c4e <__udivmoddi4+0x27e>
 8000a30:	3c02      	subs	r4, #2
 8000a32:	4463      	add	r3, ip
 8000a34:	1a59      	subs	r1, r3, r1
 8000a36:	fa1f f38e 	uxth.w	r3, lr
 8000a3a:	fbb1 f0f7 	udiv	r0, r1, r7
 8000a3e:	fb07 1110 	mls	r1, r7, r0, r1
 8000a42:	ea43 4301 	orr.w	r3, r3, r1, lsl #16
 8000a46:	fb00 f606 	mul.w	r6, r0, r6
 8000a4a:	429e      	cmp	r6, r3
 8000a4c:	d90a      	bls.n	8000a64 <__udivmoddi4+0x94>
 8000a4e:	eb1c 0303 	adds.w	r3, ip, r3
 8000a52:	f100 31ff 	add.w	r1, r0, #4294967295
 8000a56:	f080 80fc 	bcs.w	8000c52 <__udivmoddi4+0x282>
 8000a5a:	429e      	cmp	r6, r3
 8000a5c:	f240 80f9 	bls.w	8000c52 <__udivmoddi4+0x282>
 8000a60:	4463      	add	r3, ip
 8000a62:	3802      	subs	r0, #2
 8000a64:	1b9b      	subs	r3, r3, r6
 8000a66:	ea40 4004 	orr.w	r0, r0, r4, lsl #16
 8000a6a:	2100      	movs	r1, #0
 8000a6c:	b11d      	cbz	r5, 8000a76 <__udivmoddi4+0xa6>
 8000a6e:	40d3      	lsrs	r3, r2
 8000a70:	2200      	movs	r2, #0
 8000a72:	e9c5 3200 	strd	r3, r2, [r5]
 8000a76:	e8bd 87f0 	ldmia.w	sp!, {r4, r5, r6, r7, r8, r9, sl, pc}
 8000a7a:	428b      	cmp	r3, r1
 8000a7c:	d905      	bls.n	8000a8a <__udivmoddi4+0xba>
 8000a7e:	b10d      	cbz	r5, 8000a84 <__udivmoddi4+0xb4>
 8000a80:	e9c5 0100 	strd	r0, r1, [r5]
 8000a84:	2100      	movs	r1, #0
 8000a86:	4608      	mov	r0, r1
 8000a88:	e7f5      	b.n	8000a76 <__udivmoddi4+0xa6>
 8000a8a:	fab3 f183 	clz	r1, r3
 8000a8e:	2900      	cmp	r1, #0
 8000a90:	d146      	bne.n	8000b20 <__udivmoddi4+0x150>
 8000a92:	42a3      	cmp	r3, r4
 8000a94:	d302      	bcc.n	8000a9c <__udivmoddi4+0xcc>
 8000a96:	4290      	cmp	r0, r2
 8000a98:	f0c0 80f0 	bcc.w	8000c7c <__udivmoddi4+0x2ac>
 8000a9c:	1a86      	subs	r6, r0, r2
 8000a9e:	eb64 0303 	sbc.w	r3, r4, r3
 8000aa2:	2001      	movs	r0, #1
 8000aa4:	2d00      	cmp	r5, #0
 8000aa6:	d0e6      	beq.n	8000a76 <__udivmoddi4+0xa6>
 8000aa8:	e9c5 6300 	strd	r6, r3, [r5]
 8000aac:	e7e3      	b.n	8000a76 <__udivmoddi4+0xa6>
 8000aae:	2a00      	cmp	r2, #0
 8000ab0:	f040 8090 	bne.w	8000bd4 <__udivmoddi4+0x204>
 8000ab4:	eba1 040c 	sub.w	r4, r1, ip
 8000ab8:	ea4f 481c 	mov.w	r8, ip, lsr #16
 8000abc:	fa1f f78c 	uxth.w	r7, ip
 8000ac0:	2101      	movs	r1, #1
 8000ac2:	fbb4 f6f8 	udiv	r6, r4, r8
 8000ac6:	ea4f 431e 	mov.w	r3, lr, lsr #16
 8000aca:	fb08 4416 	mls	r4, r8, r6, r4
 8000ace:	ea43 4304 	orr.w	r3, r3, r4, lsl #16
 8000ad2:	fb07 f006 	mul.w	r0, r7, r6
 8000ad6:	4298      	cmp	r0, r3
 8000ad8:	d908      	bls.n	8000aec <__udivmoddi4+0x11c>
 8000ada:	eb1c 0303 	adds.w	r3, ip, r3
 8000ade:	f106 34ff 	add.w	r4, r6, #4294967295
 8000ae2:	d202      	bcs.n	8000aea <__udivmoddi4+0x11a>
 8000ae4:	4298      	cmp	r0, r3
 8000ae6:	f200 80cd 	bhi.w	8000c84 <__udivmoddi4+0x2b4>
 8000aea:	4626      	mov	r6, r4
 8000aec:	1a1c      	subs	r4, r3, r0
 8000aee:	fa1f f38e 	uxth.w	r3, lr
 8000af2:	fbb4 f0f8 	udiv	r0, r4, r8
 8000af6:	fb08 4410 	mls	r4, r8, r0, r4
 8000afa:	ea43 4304 	orr.w	r3, r3, r4, lsl #16
 8000afe:	fb00 f707 	mul.w	r7, r0, r7
 8000b02:	429f      	cmp	r7, r3
 8000b04:	d908      	bls.n	8000b18 <__udivmoddi4+0x148>
 8000b06:	eb1c 0303 	adds.w	r3, ip, r3
 8000b0a:	f100 34ff 	add.w	r4, r0, #4294967295
 8000b0e:	d202      	bcs.n	8000b16 <__udivmoddi4+0x146>
 8000b10:	429f      	cmp	r7, r3
 8000b12:	f200 80b0 	bhi.w	8000c76 <__udivmoddi4+0x2a6>
 8000b16:	4620      	mov	r0, r4
 8000b18:	1bdb      	subs	r3, r3, r7
 8000b1a:	ea40 4006 	orr.w	r0, r0, r6, lsl #16
 8000b1e:	e7a5      	b.n	8000a6c <__udivmoddi4+0x9c>
 8000b20:	f1c1 0620 	rsb	r6, r1, #32
 8000b24:	408b      	lsls	r3, r1
 8000b26:	fa22 f706 	lsr.w	r7, r2, r6
 8000b2a:	431f      	orrs	r7, r3
 8000b2c:	fa20 fc06 	lsr.w	ip, r0, r6
 8000b30:	fa04 f301 	lsl.w	r3, r4, r1
 8000b34:	ea43 030c 	orr.w	r3, r3, ip
 8000b38:	40f4      	lsrs	r4, r6
 8000b3a:	fa00 f801 	lsl.w	r8, r0, r1
 8000b3e:	0c38      	lsrs	r0, r7, #16
 8000b40:	ea4f 4913 	mov.w	r9, r3, lsr #16
 8000b44:	fbb4 fef0 	udiv	lr, r4, r0
 8000b48:	fa1f fc87 	uxth.w	ip, r7
 8000b4c:	fb00 441e 	mls	r4, r0, lr, r4
 8000b50:	ea49 4404 	orr.w	r4, r9, r4, lsl #16
 8000b54:	fb0e f90c 	mul.w	r9, lr, ip
 8000b58:	45a1      	cmp	r9, r4
 8000b5a:	fa02 f201 	lsl.w	r2, r2, r1
 8000b5e:	d90a      	bls.n	8000b76 <__udivmoddi4+0x1a6>
 8000b60:	193c      	adds	r4, r7, r4
 8000b62:	f10e 3aff 	add.w	sl, lr, #4294967295
 8000b66:	f080 8084 	bcs.w	8000c72 <__udivmoddi4+0x2a2>
 8000b6a:	45a1      	cmp	r9, r4
 8000b6c:	f240 8081 	bls.w	8000c72 <__udivmoddi4+0x2a2>
 8000b70:	f1ae 0e02 	sub.w	lr, lr, #2
 8000b74:	443c      	add	r4, r7
 8000b76:	eba4 0409 	sub.w	r4, r4, r9
 8000b7a:	fa1f f983 	uxth.w	r9, r3
 8000b7e:	fbb4 f3f0 	udiv	r3, r4, r0
 8000b82:	fb00 4413 	mls	r4, r0, r3, r4
 8000b86:	ea49 4404 	orr.w	r4, r9, r4, lsl #16
 8000b8a:	fb03 fc0c 	mul.w	ip, r3, ip
 8000b8e:	45a4      	cmp	ip, r4
 8000b90:	d907      	bls.n	8000ba2 <__udivmoddi4+0x1d2>
 8000b92:	193c      	adds	r4, r7, r4
 8000b94:	f103 30ff 	add.w	r0, r3, #4294967295
 8000b98:	d267      	bcs.n	8000c6a <__udivmoddi4+0x29a>
 8000b9a:	45a4      	cmp	ip, r4
 8000b9c:	d965      	bls.n	8000c6a <__udivmoddi4+0x29a>
 8000b9e:	3b02      	subs	r3, #2
 8000ba0:	443c      	add	r4, r7
 8000ba2:	ea43 400e 	orr.w	r0, r3, lr, lsl #16
 8000ba6:	fba0 9302 	umull	r9, r3, r0, r2
 8000baa:	eba4 040c 	sub.w	r4, r4, ip
 8000bae:	429c      	cmp	r4, r3
 8000bb0:	46ce      	mov	lr, r9
 8000bb2:	469c      	mov	ip, r3
 8000bb4:	d351      	bcc.n	8000c5a <__udivmoddi4+0x28a>
 8000bb6:	d04e      	beq.n	8000c56 <__udivmoddi4+0x286>
 8000bb8:	b155      	cbz	r5, 8000bd0 <__udivmoddi4+0x200>
 8000bba:	ebb8 030e 	subs.w	r3, r8, lr
 8000bbe:	eb64 040c 	sbc.w	r4, r4, ip
 8000bc2:	fa04 f606 	lsl.w	r6, r4, r6
 8000bc6:	40cb      	lsrs	r3, r1
 8000bc8:	431e      	orrs	r6, r3
 8000bca:	40cc      	lsrs	r4, r1
 8000bcc:	e9c5 6400 	strd	r6, r4, [r5]
 8000bd0:	2100      	movs	r1, #0
 8000bd2:	e750      	b.n	8000a76 <__udivmoddi4+0xa6>
 8000bd4:	f1c2 0320 	rsb	r3, r2, #32
 8000bd8:	fa20 f103 	lsr.w	r1, r0, r3
 8000bdc:	fa0c fc02 	lsl.w	ip, ip, r2
 8000be0:	fa24 f303 	lsr.w	r3, r4, r3
 8000be4:	4094      	lsls	r4, r2
 8000be6:	430c      	orrs	r4, r1
 8000be8:	ea4f 481c 	mov.w	r8, ip, lsr #16
 8000bec:	fa00 fe02 	lsl.w	lr, r0, r2
 8000bf0:	fa1f f78c 	uxth.w	r7, ip
 8000bf4:	fbb3 f0f8 	udiv	r0, r3, r8
 8000bf8:	fb08 3110 	mls	r1, r8, r0, r3
 8000bfc:	0c23      	lsrs	r3, r4, #16
 8000bfe:	ea43 4301 	orr.w	r3, r3, r1, lsl #16
 8000c02:	fb00 f107 	mul.w	r1, r0, r7
 8000c06:	4299      	cmp	r1, r3
 8000c08:	d908      	bls.n	8000c1c <__udivmoddi4+0x24c>
 8000c0a:	eb1c 0303 	adds.w	r3, ip, r3
 8000c0e:	f100 36ff 	add.w	r6, r0, #4294967295
 8000c12:	d22c      	bcs.n	8000c6e <__udivmoddi4+0x29e>
 8000c14:	4299      	cmp	r1, r3
 8000c16:	d92a      	bls.n	8000c6e <__udivmoddi4+0x29e>
 8000c18:	3802      	subs	r0, #2
 8000c1a:	4463      	add	r3, ip
 8000c1c:	1a5b      	subs	r3, r3, r1
 8000c1e:	b2a4      	uxth	r4, r4
 8000c20:	fbb3 f1f8 	udiv	r1, r3, r8
 8000c24:	fb08 3311 	mls	r3, r8, r1, r3
 8000c28:	ea44 4403 	orr.w	r4, r4, r3, lsl #16
 8000c2c:	fb01 f307 	mul.w	r3, r1, r7
 8000c30:	42a3      	cmp	r3, r4
 8000c32:	d908      	bls.n	8000c46 <__udivmoddi4+0x276>
 8000c34:	eb1c 0404 	adds.w	r4, ip, r4
 8000c38:	f101 36ff 	add.w	r6, r1, #4294967295
 8000c3c:	d213      	bcs.n	8000c66 <__udivmoddi4+0x296>
 8000c3e:	42a3      	cmp	r3, r4
 8000c40:	d911      	bls.n	8000c66 <__udivmoddi4+0x296>
 8000c42:	3902      	subs	r1, #2
 8000c44:	4464      	add	r4, ip
 8000c46:	1ae4      	subs	r4, r4, r3
 8000c48:	ea41 4100 	orr.w	r1, r1, r0, lsl #16
 8000c4c:	e739      	b.n	8000ac2 <__udivmoddi4+0xf2>
 8000c4e:	4604      	mov	r4, r0
 8000c50:	e6f0      	b.n	8000a34 <__udivmoddi4+0x64>
 8000c52:	4608      	mov	r0, r1
 8000c54:	e706      	b.n	8000a64 <__udivmoddi4+0x94>
 8000c56:	45c8      	cmp	r8, r9
 8000c58:	d2ae      	bcs.n	8000bb8 <__udivmoddi4+0x1e8>
 8000c5a:	ebb9 0e02 	subs.w	lr, r9, r2
 8000c5e:	eb63 0c07 	sbc.w	ip, r3, r7
 8000c62:	3801      	subs	r0, #1
 8000c64:	e7a8      	b.n	8000bb8 <__udivmoddi4+0x1e8>
 8000c66:	4631      	mov	r1, r6
 8000c68:	e7ed      	b.n	8000c46 <__udivmoddi4+0x276>
 8000c6a:	4603      	mov	r3, r0
 8000c6c:	e799      	b.n	8000ba2 <__udivmoddi4+0x1d2>
 8000c6e:	4630      	mov	r0, r6
 8000c70:	e7d4      	b.n	8000c1c <__udivmoddi4+0x24c>
 8000c72:	46d6      	mov	lr, sl
 8000c74:	e77f      	b.n	8000b76 <__udivmoddi4+0x1a6>
 8000c76:	4463      	add	r3, ip
 8000c78:	3802      	subs	r0, #2
 8000c7a:	e74d      	b.n	8000b18 <__udivmoddi4+0x148>
 8000c7c:	4606      	mov	r6, r0
 8000c7e:	4623      	mov	r3, r4
 8000c80:	4608      	mov	r0, r1
 8000c82:	e70f      	b.n	8000aa4 <__udivmoddi4+0xd4>
 8000c84:	3e02      	subs	r6, #2
 8000c86:	4463      	add	r3, ip
 8000c88:	e730      	b.n	8000aec <__udivmoddi4+0x11c>
 8000c8a:	bf00      	nop

08000c8c <__aeabi_idiv0>:
 8000c8c:	4770      	bx	lr
 8000c8e:	bf00      	nop

08000c90 <motorBobinaTask>:
 8000c90:	e92d 4ff0 	stmdb	sp!, {r4, r5, r6, r7, r8, r9, sl, fp, lr}
 8000c94:	4930      	ldr	r1, [pc, #192]	@ (8000d58 <motorBobinaTask+0xc8>)
 8000c96:	4831      	ldr	r0, [pc, #196]	@ (8000d5c <motorBobinaTask+0xcc>)
 8000c98:	f8df 80bc 	ldr.w	r8, [pc, #188]	@ 8000d58 <motorBobinaTask+0xc8>
 8000c9c:	f8df b0c8 	ldr.w	fp, [pc, #200]	@ 8000d68 <motorBobinaTask+0xd8>
 8000ca0:	4f2f      	ldr	r7, [pc, #188]	@ (8000d60 <motorBobinaTask+0xd0>)
 8000ca2:	4d30      	ldr	r5, [pc, #192]	@ (8000d64 <motorBobinaTask+0xd4>)
 8000ca4:	b085      	sub	sp, #20
 8000ca6:	2201      	movs	r2, #1
 8000ca8:	f001 f838 	bl	8001d1c <HAL_ADC_Start_DMA>
 8000cac:	2100      	movs	r1, #0
 8000cae:	4a2e      	ldr	r2, [pc, #184]	@ (8000d68 <motorBobinaTask+0xd8>)
 8000cb0:	9100      	str	r1, [sp, #0]
 8000cb2:	2301      	movs	r3, #1
 8000cb4:	482d      	ldr	r0, [pc, #180]	@ (8000d6c <motorBobinaTask+0xdc>)
 8000cb6:	f001 fa5f 	bl	8002178 <HAL_DAC_Start_DMA>
 8000cba:	482d      	ldr	r0, [pc, #180]	@ (8000d70 <motorBobinaTask+0xe0>)
 8000cbc:	f002 f978 	bl	8002fb0 <HAL_TIM_Base_Start>
 8000cc0:	f44f 6600 	mov.w	r6, #2048	@ 0x800
 8000cc4:	f10d 0a0a 	add.w	sl, sp, #10
 8000cc8:	f10d 090c 	add.w	r9, sp, #12
 8000ccc:	e026      	b.n	8000d1c <motorBobinaTask+0x8c>
 8000cce:	461a      	mov	r2, r3
 8000cd0:	f001 fe02 	bl	80028d8 <HAL_GPIO_WritePin>
 8000cd4:	f44f 6180 	mov.w	r1, #1024	@ 0x400
 8000cd8:	4638      	mov	r0, r7
 8000cda:	f001 fdf7 	bl	80028cc <HAL_GPIO_ReadPin>
 8000cde:	b910      	cbnz	r0, 8000ce6 <motorBobinaTask+0x56>
 8000ce0:	f8b8 6000 	ldrh.w	r6, [r8]
 8000ce4:	b2b6      	uxth	r6, r6
 8000ce6:	ebc4 1404 	rsb	r4, r4, r4, lsl #4
 8000cea:	ea84 73e4 	eor.w	r3, r4, r4, asr #31
 8000cee:	f640 71ff 	movw	r1, #4095	@ 0xfff
 8000cf2:	eba3 73e4 	sub.w	r3, r3, r4, asr #31
 8000cf6:	428b      	cmp	r3, r1
 8000cf8:	bfa8      	it	ge
 8000cfa:	460b      	movge	r3, r1
 8000cfc:	2c00      	cmp	r4, #0
 8000cfe:	f04f 0201 	mov.w	r2, #1
 8000d02:	b29b      	uxth	r3, r3
 8000d04:	f44f 7100 	mov.w	r1, #512	@ 0x200
 8000d08:	4628      	mov	r0, r5
 8000d0a:	bfbe      	ittt	lt
 8000d0c:	2200      	movlt	r2, #0
 8000d0e:	f44f 7100 	movlt.w	r1, #512	@ 0x200
 8000d12:	4628      	movlt	r0, r5
 8000d14:	f8ab 3000 	strh.w	r3, [fp]
 8000d18:	f001 fdde 	bl	80028d8 <HAL_GPIO_WritePin>
 8000d1c:	f44f 7384 	mov.w	r3, #264	@ 0x108
 8000d20:	2200      	movs	r2, #0
 8000d22:	2101      	movs	r1, #1
 8000d24:	e9cd 9a00 	strd	r9, sl, [sp]
 8000d28:	4812      	ldr	r0, [pc, #72]	@ (8000d74 <motorBobinaTask+0xe4>)
 8000d2a:	f003 f9e3 	bl	80040f4 <OSFlagPend>
 8000d2e:	f44f 5100 	mov.w	r1, #8192	@ 0x2000
 8000d32:	4638      	mov	r0, r7
 8000d34:	f8b8 4000 	ldrh.w	r4, [r8]
 8000d38:	f001 fdc8 	bl	80028cc <HAL_GPIO_ReadPin>
 8000d3c:	b2a4      	uxth	r4, r4
 8000d3e:	4603      	mov	r3, r0
 8000d40:	1b34      	subs	r4, r6, r4
 8000d42:	f44f 7180 	mov.w	r1, #256	@ 0x100
 8000d46:	4628      	mov	r0, r5
 8000d48:	2201      	movs	r2, #1
 8000d4a:	2b00      	cmp	r3, #0
 8000d4c:	d0bf      	beq.n	8000cce <motorBobinaTask+0x3e>
 8000d4e:	f44f 7180 	mov.w	r1, #256	@ 0x100
 8000d52:	f001 fdc1 	bl	80028d8 <HAL_GPIO_WritePin>
 8000d56:	e7c6      	b.n	8000ce6 <motorBobinaTask+0x56>
 8000d58:	2000002e 	.word	0x2000002e
 8000d5c:	200010b0 	.word	0x200010b0
 8000d60:	40020c00 	.word	0x40020c00
 8000d64:	40021400 	.word	0x40021400
 8000d68:	2000002c 	.word	0x2000002c
 8000d6c:	20000f90 	.word	0x20000f90
 8000d70:	20000e3c 	.word	0x20000e3c
 8000d74:	20000e2c 	.word	0x20000e2c

08000d78 <HAL_ADC_ConvCpltCallback>:
 8000d78:	4b08      	ldr	r3, [pc, #32]	@ (8000d9c <HAL_ADC_ConvCpltCallback+0x24>)
 8000d7a:	6802      	ldr	r2, [r0, #0]
 8000d7c:	429a      	cmp	r2, r3
 8000d7e:	d000      	beq.n	8000d82 <HAL_ADC_ConvCpltCallback+0xa>
 8000d80:	4770      	bx	lr
 8000d82:	b500      	push	{lr}
 8000d84:	b083      	sub	sp, #12
 8000d86:	f10d 0306 	add.w	r3, sp, #6
 8000d8a:	2200      	movs	r2, #0
 8000d8c:	2101      	movs	r1, #1
 8000d8e:	4804      	ldr	r0, [pc, #16]	@ (8000da0 <HAL_ADC_ConvCpltCallback+0x28>)
 8000d90:	f003 fae0 	bl	8004354 <OSFlagPost>
 8000d94:	b003      	add	sp, #12
 8000d96:	f85d fb04 	ldr.w	pc, [sp], #4
 8000d9a:	bf00      	nop
 8000d9c:	40012100 	.word	0x40012100
 8000da0:	20000e2c 	.word	0x20000e2c

08000da4 <motorBobinaCreateTask>:
 8000da4:	b510      	push	{r4, lr}
 8000da6:	4c0f      	ldr	r4, [pc, #60]	@ (8000de4 <motorBobinaCreateTask+0x40>)
 8000da8:	b08c      	sub	sp, #48	@ 0x30
 8000daa:	2300      	movs	r3, #0
 8000dac:	2003      	movs	r0, #3
 8000dae:	f10d 012e 	add.w	r1, sp, #46	@ 0x2e
 8000db2:	f44f 7280 	mov.w	r2, #256	@ 0x100
 8000db6:	e9cd 0107 	strd	r0, r1, [sp, #28]
 8000dba:	e9cd 2303 	strd	r2, r3, [sp, #12]
 8000dbe:	e9cd 3305 	strd	r3, r3, [sp, #20]
 8000dc2:	e9cd 4301 	strd	r4, r3, [sp, #4]
 8000dc6:	9000      	str	r0, [sp, #0]
 8000dc8:	4a07      	ldr	r2, [pc, #28]	@ (8000de8 <motorBobinaCreateTask+0x44>)
 8000dca:	4908      	ldr	r1, [pc, #32]	@ (8000dec <motorBobinaCreateTask+0x48>)
 8000dcc:	4808      	ldr	r0, [pc, #32]	@ (8000df0 <motorBobinaCreateTask+0x4c>)
 8000dce:	f003 fe97 	bl	8004b00 <OSTaskCreate>
 8000dd2:	f8bd 302e 	ldrh.w	r3, [sp, #46]	@ 0x2e
 8000dd6:	b90b      	cbnz	r3, 8000ddc <motorBobinaCreateTask+0x38>
 8000dd8:	b00c      	add	sp, #48	@ 0x30
 8000dda:	bd10      	pop	{r4, pc}
 8000ddc:	f000 f9d4 	bl	8001188 <Error_Handler>
 8000de0:	b00c      	add	sp, #48	@ 0x30
 8000de2:	bd10      	pop	{r4, pc}
 8000de4:	20000030 	.word	0x20000030
 8000de8:	08000c91 	.word	0x08000c91
 8000dec:	08005928 	.word	0x08005928
 8000df0:	20000430 	.word	0x20000430
 8000df4:	00000000 	.word	0x00000000

08000df8 <carroTransversalTask>:
 8000df8:	e92d 4ff0 	stmdb	sp!, {r4, r5, r6, r7, r8, r9, sl, fp, lr}
 8000dfc:	487a      	ldr	r0, [pc, #488]	@ (8000fe8 <carroTransversalTask+0x1f0>)
 8000dfe:	4c7b      	ldr	r4, [pc, #492]	@ (8000fec <carroTransversalTask+0x1f4>)
 8000e00:	4e7b      	ldr	r6, [pc, #492]	@ (8000ff0 <carroTransversalTask+0x1f8>)
 8000e02:	4d7c      	ldr	r5, [pc, #496]	@ (8000ff4 <carroTransversalTask+0x1fc>)
 8000e04:	4f7c      	ldr	r7, [pc, #496]	@ (8000ff8 <carroTransversalTask+0x200>)
 8000e06:	b087      	sub	sp, #28
 8000e08:	210c      	movs	r1, #12
 8000e0a:	f002 f9a1 	bl	8003150 <HAL_TIM_PWM_Start>
 8000e0e:	e00b      	b.n	8000e28 <carroTransversalTask+0x30>
 8000e10:	f001 fd62 	bl	80028d8 <HAL_GPIO_WritePin>
 8000e14:	2201      	movs	r2, #1
 8000e16:	2140      	movs	r1, #64	@ 0x40
 8000e18:	4628      	mov	r0, r5
 8000e1a:	f001 fd5d 	bl	80028d8 <HAL_GPIO_WritePin>
 8000e1e:	f64f 73ff 	movw	r3, #65535	@ 0xffff
 8000e22:	3c01      	subs	r4, #1
 8000e24:	643b      	str	r3, [r7, #64]	@ 0x40
 8000e26:	d009      	beq.n	8000e3c <carroTransversalTask+0x44>
 8000e28:	f44f 4100 	mov.w	r1, #32768	@ 0x8000
 8000e2c:	4630      	mov	r0, r6
 8000e2e:	f001 fd4d 	bl	80028cc <HAL_GPIO_ReadPin>
 8000e32:	4602      	mov	r2, r0
 8000e34:	2120      	movs	r1, #32
 8000e36:	4628      	mov	r0, r5
 8000e38:	2a00      	cmp	r2, #0
 8000e3a:	d0e9      	beq.n	8000e10 <carroTransversalTask+0x18>
 8000e3c:	486d      	ldr	r0, [pc, #436]	@ (8000ff4 <carroTransversalTask+0x1fc>)
 8000e3e:	f8df 81b8 	ldr.w	r8, [pc, #440]	@ 8000ff8 <carroTransversalTask+0x200>
 8000e42:	f8df a1cc 	ldr.w	sl, [pc, #460]	@ 8001010 <carroTransversalTask+0x218>
 8000e46:	4f6d      	ldr	r7, [pc, #436]	@ (8000ffc <carroTransversalTask+0x204>)
 8000e48:	4c6a      	ldr	r4, [pc, #424]	@ (8000ff4 <carroTransversalTask+0x1fc>)
 8000e4a:	2200      	movs	r2, #0
 8000e4c:	2120      	movs	r1, #32
 8000e4e:	f001 fd43 	bl	80028d8 <HAL_GPIO_WritePin>
 8000e52:	2200      	movs	r2, #0
 8000e54:	4867      	ldr	r0, [pc, #412]	@ (8000ff4 <carroTransversalTask+0x1fc>)
 8000e56:	2140      	movs	r1, #64	@ 0x40
 8000e58:	f001 fd3e 	bl	80028d8 <HAL_GPIO_WritePin>
 8000e5c:	4a68      	ldr	r2, [pc, #416]	@ (8001000 <carroTransversalTask+0x208>)
 8000e5e:	2300      	movs	r3, #0
 8000e60:	f8c8 3040 	str.w	r3, [r8, #64]	@ 0x40
 8000e64:	f8c8 3040 	str.w	r3, [r8, #64]	@ 0x40
 8000e68:	7013      	strb	r3, [r2, #0]
 8000e6a:	9302      	str	r3, [sp, #8]
 8000e6c:	f88a 3000 	strb.w	r3, [sl]
 8000e70:	703b      	strb	r3, [r7, #0]
 8000e72:	2302      	movs	r3, #2
 8000e74:	9303      	str	r3, [sp, #12]
 8000e76:	e028      	b.n	8000eca <carroTransversalTask+0xd2>
 8000e78:	2d01      	cmp	r5, #1
 8000e7a:	f000 808b 	beq.w	8000f94 <carroTransversalTask+0x19c>
 8000e7e:	9b03      	ldr	r3, [sp, #12]
 8000e80:	459b      	cmp	fp, r3
 8000e82:	9b02      	ldr	r3, [sp, #8]
 8000e84:	f000 8093 	beq.w	8000fae <carroTransversalTask+0x1b6>
 8000e88:	f8cd b00c 	str.w	fp, [sp, #12]
 8000e8c:	2b00      	cmp	r3, #0
 8000e8e:	f040 8081 	bne.w	8000f94 <carroTransversalTask+0x19c>
 8000e92:	2200      	movs	r2, #0
 8000e94:	2120      	movs	r1, #32
 8000e96:	4620      	mov	r0, r4
 8000e98:	f001 fd1e 	bl	80028d8 <HAL_GPIO_WritePin>
 8000e9c:	2201      	movs	r2, #1
 8000e9e:	2140      	movs	r1, #64	@ 0x40
 8000ea0:	4620      	mov	r0, r4
 8000ea2:	f001 fd19 	bl	80028d8 <HAL_GPIO_WritePin>
 8000ea6:	2301      	movs	r3, #1
 8000ea8:	9302      	str	r3, [sp, #8]
 8000eaa:	783b      	ldrb	r3, [r7, #0]
 8000eac:	b9fb      	cbnz	r3, 8000eee <carroTransversalTask+0xf6>
 8000eae:	f64f 73ff 	movw	r3, #65535	@ 0xffff
 8000eb2:	4620      	mov	r0, r4
 8000eb4:	2201      	movs	r2, #1
 8000eb6:	2120      	movs	r1, #32
 8000eb8:	f8c8 3040 	str.w	r3, [r8, #64]	@ 0x40
 8000ebc:	f001 fd0c 	bl	80028d8 <HAL_GPIO_WritePin>
 8000ec0:	2201      	movs	r2, #1
 8000ec2:	2140      	movs	r1, #64	@ 0x40
 8000ec4:	4620      	mov	r0, r4
 8000ec6:	f001 fd07 	bl	80028d8 <HAL_GPIO_WritePin>
 8000eca:	f10d 0312 	add.w	r3, sp, #18
 8000ece:	9301      	str	r3, [sp, #4]
 8000ed0:	ab05      	add	r3, sp, #20
 8000ed2:	9300      	str	r3, [sp, #0]
 8000ed4:	484b      	ldr	r0, [pc, #300]	@ (8001004 <carroTransversalTask+0x20c>)
 8000ed6:	f44f 7384 	mov.w	r3, #264	@ 0x108
 8000eda:	2200      	movs	r2, #0
 8000edc:	2106      	movs	r1, #6
 8000ede:	f003 f909 	bl	80040f4 <OSFlagPend>
 8000ee2:	783b      	ldrb	r3, [r7, #0]
 8000ee4:	4683      	mov	fp, r0
 8000ee6:	2b00      	cmp	r3, #0
 8000ee8:	d0e1      	beq.n	8000eae <carroTransversalTask+0xb6>
 8000eea:	f8df 9104 	ldr.w	r9, [pc, #260]	@ 8000ff0 <carroTransversalTask+0x1f8>
 8000eee:	4846      	ldr	r0, [pc, #280]	@ (8001008 <carroTransversalTask+0x210>)
 8000ef0:	2108      	movs	r1, #8
 8000ef2:	f001 fceb 	bl	80028cc <HAL_GPIO_ReadPin>
 8000ef6:	f44f 4100 	mov.w	r1, #32768	@ 0x8000
 8000efa:	4606      	mov	r6, r0
 8000efc:	4648      	mov	r0, r9
 8000efe:	f001 fce5 	bl	80028cc <HAL_GPIO_ReadPin>
 8000f02:	f89a 3000 	ldrb.w	r3, [sl]
 8000f06:	2b0e      	cmp	r3, #14
 8000f08:	4605      	mov	r5, r0
 8000f0a:	d816      	bhi.n	8000f3a <carroTransversalTask+0x142>
 8000f0c:	f64f 73ff 	movw	r3, #65535	@ 0xffff
 8000f10:	f8c8 3040 	str.w	r3, [r8, #64]	@ 0x40
 8000f14:	2e01      	cmp	r6, #1
 8000f16:	d1af      	bne.n	8000e78 <carroTransversalTask+0x80>
 8000f18:	2d01      	cmp	r5, #1
 8000f1a:	d1ba      	bne.n	8000e92 <carroTransversalTask+0x9a>
 8000f1c:	2300      	movs	r3, #0
 8000f1e:	703b      	strb	r3, [r7, #0]
 8000f20:	2303      	movs	r3, #3
 8000f22:	9302      	str	r3, [sp, #8]
 8000f24:	4620      	mov	r0, r4
 8000f26:	2200      	movs	r2, #0
 8000f28:	2120      	movs	r1, #32
 8000f2a:	f001 fcd5 	bl	80028d8 <HAL_GPIO_WritePin>
 8000f2e:	2200      	movs	r2, #0
 8000f30:	2140      	movs	r1, #64	@ 0x40
 8000f32:	4620      	mov	r0, r4
 8000f34:	f001 fcd0 	bl	80028d8 <HAL_GPIO_WritePin>
 8000f38:	e7b7      	b.n	8000eaa <carroTransversalTask+0xb2>
 8000f3a:	f89a 0000 	ldrb.w	r0, [sl]
 8000f3e:	380f      	subs	r0, #15
 8000f40:	f7ff fc64 	bl	800080c <__aeabi_ui2d>
 8000f44:	a326      	add	r3, pc, #152	@ (adr r3, 8000fe0 <carroTransversalTask+0x1e8>)
 8000f46:	e9d3 2300 	ldrd	r2, r3, [r3]
 8000f4a:	f7ff f9f3 	bl	8000334 <__aeabi_dmul>
 8000f4e:	4602      	mov	r2, r0
 8000f50:	460b      	mov	r3, r1
 8000f52:	2000      	movs	r0, #0
 8000f54:	492d      	ldr	r1, [pc, #180]	@ (800100c <carroTransversalTask+0x214>)
 8000f56:	f7ff fb1b 	bl	8000590 <__aeabi_dsub>
 8000f5a:	f7ff fcd1 	bl	8000900 <__aeabi_d2f>
 8000f5e:	ee07 0a90 	vmov	s15, r0
 8000f62:	eef5 7ac0 	vcmpe.f32	s15, #0.0
 8000f66:	eef1 fa10 	vmrs	APSR_nzcv, fpscr
 8000f6a:	dd06      	ble.n	8000f7a <carroTransversalTask+0x182>
 8000f6c:	eeb7 7a00 	vmov.f32	s14, #112	@ 0x3f800000  1.0
 8000f70:	eef4 7ac7 	vcmpe.f32	s15, s14
 8000f74:	eef1 fa10 	vmrs	APSR_nzcv, fpscr
 8000f78:	d426      	bmi.n	8000fc8 <carroTransversalTask+0x1d0>
 8000f7a:	eef5 7ac0 	vcmpe.f32	s15, #0.0
 8000f7e:	eef1 fa10 	vmrs	APSR_nzcv, fpscr
 8000f82:	d8c3      	bhi.n	8000f0c <carroTransversalTask+0x114>
 8000f84:	2300      	movs	r3, #0
 8000f86:	f8c8 3040 	str.w	r3, [r8, #64]	@ 0x40
 8000f8a:	e7c3      	b.n	8000f14 <carroTransversalTask+0x11c>
 8000f8c:	d8ca      	bhi.n	8000f24 <carroTransversalTask+0x12c>
 8000f8e:	2b00      	cmp	r3, #0
 8000f90:	f47f af7f 	bne.w	8000e92 <carroTransversalTask+0x9a>
 8000f94:	2201      	movs	r2, #1
 8000f96:	2120      	movs	r1, #32
 8000f98:	4620      	mov	r0, r4
 8000f9a:	f001 fc9d 	bl	80028d8 <HAL_GPIO_WritePin>
 8000f9e:	2200      	movs	r2, #0
 8000fa0:	2140      	movs	r1, #64	@ 0x40
 8000fa2:	4620      	mov	r0, r4
 8000fa4:	f001 fc98 	bl	80028d8 <HAL_GPIO_WritePin>
 8000fa8:	2300      	movs	r3, #0
 8000faa:	9302      	str	r3, [sp, #8]
 8000fac:	e77d      	b.n	8000eaa <carroTransversalTask+0xb2>
 8000fae:	2b02      	cmp	r3, #2
 8000fb0:	d1ec      	bne.n	8000f8c <carroTransversalTask+0x194>
 8000fb2:	4620      	mov	r0, r4
 8000fb4:	2201      	movs	r2, #1
 8000fb6:	2120      	movs	r1, #32
 8000fb8:	f001 fc8e 	bl	80028d8 <HAL_GPIO_WritePin>
 8000fbc:	2201      	movs	r2, #1
 8000fbe:	2140      	movs	r1, #64	@ 0x40
 8000fc0:	4620      	mov	r0, r4
 8000fc2:	f001 fc89 	bl	80028d8 <HAL_GPIO_WritePin>
 8000fc6:	e770      	b.n	8000eaa <carroTransversalTask+0xb2>
 8000fc8:	ed98 7a0b 	vldr	s14, [r8, #44]	@ 0x2c
 8000fcc:	eeb8 7a47 	vcvt.f32.u32	s14, s14
 8000fd0:	ee67 7a27 	vmul.f32	s15, s14, s15
 8000fd4:	eefc 7ae7 	vcvt.u32.f32	s15, s15
 8000fd8:	edc8 7a10 	vstr	s15, [r8, #64]	@ 0x40
 8000fdc:	e79a      	b.n	8000f14 <carroTransversalTask+0x11c>
 8000fde:	bf00      	nop
 8000fe0:	9999999a 	.word	0x9999999a
 8000fe4:	3fb99999 	.word	0x3fb99999
 8000fe8:	20000e88 	.word	0x20000e88
 8000fec:	017d7840 	.word	0x017d7840
 8000ff0:	40020000 	.word	0x40020000
 8000ff4:	40021000 	.word	0x40021000
 8000ff8:	40010000 	.word	0x40010000
 8000ffc:	200004d8 	.word	0x200004d8
 8001000:	200004da 	.word	0x200004da
 8001004:	20000e2c 	.word	0x20000e2c
 8001008:	40020400 	.word	0x40020400
 800100c:	3ff00000 	.word	0x3ff00000
 8001010:	200004d9 	.word	0x200004d9

08001014 <HAL_GPIO_EXTI_Callback>:
 8001014:	b510      	push	{r4, lr}
 8001016:	f5b0 4f80 	cmp.w	r0, #16384	@ 0x4000
 800101a:	b082      	sub	sp, #8
 800101c:	d007      	beq.n	800102e <HAL_GPIO_EXTI_Callback+0x1a>
 800101e:	f5b0 4f00 	cmp.w	r0, #32768	@ 0x8000
 8001022:	d02f      	beq.n	8001084 <HAL_GPIO_EXTI_Callback+0x70>
 8001024:	2808      	cmp	r0, #8
 8001026:	d01f      	beq.n	8001068 <HAL_GPIO_EXTI_Callback+0x54>
 8001028:	bf00      	nop
 800102a:	b002      	add	sp, #8
 800102c:	bd10      	pop	{r4, pc}
 800102e:	4824      	ldr	r0, [pc, #144]	@ (80010c0 <HAL_GPIO_EXTI_Callback+0xac>)
 8001030:	f44f 4100 	mov.w	r1, #32768	@ 0x8000
 8001034:	f001 fc4a 	bl	80028cc <HAL_GPIO_ReadPin>
 8001038:	2801      	cmp	r0, #1
 800103a:	d1f6      	bne.n	800102a <HAL_GPIO_EXTI_Callback+0x16>
 800103c:	4921      	ldr	r1, [pc, #132]	@ (80010c4 <HAL_GPIO_EXTI_Callback+0xb0>)
 800103e:	780b      	ldrb	r3, [r1, #0]
 8001040:	3301      	adds	r3, #1
 8001042:	b25b      	sxtb	r3, r3
 8001044:	700b      	strb	r3, [r1, #0]
 8001046:	780b      	ldrb	r3, [r1, #0]
 8001048:	b25b      	sxtb	r3, r3
 800104a:	2b07      	cmp	r3, #7
 800104c:	dded      	ble.n	800102a <HAL_GPIO_EXTI_Callback+0x16>
 800104e:	4b1e      	ldr	r3, [pc, #120]	@ (80010c8 <HAL_GPIO_EXTI_Callback+0xb4>)
 8001050:	4c1e      	ldr	r4, [pc, #120]	@ (80010cc <HAL_GPIO_EXTI_Callback+0xb8>)
 8001052:	2200      	movs	r2, #0
 8001054:	700a      	strb	r2, [r1, #0]
 8001056:	701a      	strb	r2, [r3, #0]
 8001058:	2102      	movs	r1, #2
 800105a:	7020      	strb	r0, [r4, #0]
 800105c:	f10d 0306 	add.w	r3, sp, #6
 8001060:	481b      	ldr	r0, [pc, #108]	@ (80010d0 <HAL_GPIO_EXTI_Callback+0xbc>)
 8001062:	f003 f977 	bl	8004354 <OSFlagPost>
 8001066:	e7e0      	b.n	800102a <HAL_GPIO_EXTI_Callback+0x16>
 8001068:	4a17      	ldr	r2, [pc, #92]	@ (80010c8 <HAL_GPIO_EXTI_Callback+0xb4>)
 800106a:	7813      	ldrb	r3, [r2, #0]
 800106c:	3301      	adds	r3, #1
 800106e:	b2db      	uxtb	r3, r3
 8001070:	7013      	strb	r3, [r2, #0]
 8001072:	7813      	ldrb	r3, [r2, #0]
 8001074:	2b13      	cmp	r3, #19
 8001076:	d9d8      	bls.n	800102a <HAL_GPIO_EXTI_Callback+0x16>
 8001078:	4914      	ldr	r1, [pc, #80]	@ (80010cc <HAL_GPIO_EXTI_Callback+0xb8>)
 800107a:	2300      	movs	r3, #0
 800107c:	7013      	strb	r3, [r2, #0]
 800107e:	700b      	strb	r3, [r1, #0]
 8001080:	b002      	add	sp, #8
 8001082:	bd10      	pop	{r4, pc}
 8001084:	480e      	ldr	r0, [pc, #56]	@ (80010c0 <HAL_GPIO_EXTI_Callback+0xac>)
 8001086:	f44f 4180 	mov.w	r1, #16384	@ 0x4000
 800108a:	f001 fc1f 	bl	80028cc <HAL_GPIO_ReadPin>
 800108e:	2801      	cmp	r0, #1
 8001090:	d1cb      	bne.n	800102a <HAL_GPIO_EXTI_Callback+0x16>
 8001092:	490c      	ldr	r1, [pc, #48]	@ (80010c4 <HAL_GPIO_EXTI_Callback+0xb0>)
 8001094:	780b      	ldrb	r3, [r1, #0]
 8001096:	3b01      	subs	r3, #1
 8001098:	b25b      	sxtb	r3, r3
 800109a:	700b      	strb	r3, [r1, #0]
 800109c:	780b      	ldrb	r3, [r1, #0]
 800109e:	b25b      	sxtb	r3, r3
 80010a0:	3307      	adds	r3, #7
 80010a2:	dac2      	bge.n	800102a <HAL_GPIO_EXTI_Callback+0x16>
 80010a4:	4b08      	ldr	r3, [pc, #32]	@ (80010c8 <HAL_GPIO_EXTI_Callback+0xb4>)
 80010a6:	4c09      	ldr	r4, [pc, #36]	@ (80010cc <HAL_GPIO_EXTI_Callback+0xb8>)
 80010a8:	2200      	movs	r2, #0
 80010aa:	700a      	strb	r2, [r1, #0]
 80010ac:	701a      	strb	r2, [r3, #0]
 80010ae:	2104      	movs	r1, #4
 80010b0:	7020      	strb	r0, [r4, #0]
 80010b2:	f10d 0306 	add.w	r3, sp, #6
 80010b6:	4806      	ldr	r0, [pc, #24]	@ (80010d0 <HAL_GPIO_EXTI_Callback+0xbc>)
 80010b8:	f003 f94c 	bl	8004354 <OSFlagPost>
 80010bc:	e7b5      	b.n	800102a <HAL_GPIO_EXTI_Callback+0x16>
 80010be:	bf00      	nop
 80010c0:	40020c00 	.word	0x40020c00
 80010c4:	200004da 	.word	0x200004da
 80010c8:	200004d9 	.word	0x200004d9
 80010cc:	200004d8 	.word	0x200004d8
 80010d0:	20000e2c 	.word	0x20000e2c

080010d4 <carroTransversalCreateTask>:
 80010d4:	b510      	push	{r4, lr}
 80010d6:	b08c      	sub	sp, #48	@ 0x30
 80010d8:	490f      	ldr	r1, [pc, #60]	@ (8001118 <carroTransversalCreateTask+0x44>)
 80010da:	f10d 042e 	add.w	r4, sp, #46	@ 0x2e
 80010de:	2203      	movs	r2, #3
 80010e0:	2300      	movs	r3, #0
 80010e2:	e9cd 2407 	strd	r2, r4, [sp, #28]
 80010e6:	f44f 7080 	mov.w	r0, #256	@ 0x100
 80010ea:	2404      	movs	r4, #4
 80010ec:	e9cd 0303 	strd	r0, r3, [sp, #12]
 80010f0:	e9cd 1301 	strd	r1, r3, [sp, #4]
 80010f4:	e9cd 3305 	strd	r3, r3, [sp, #20]
 80010f8:	4a08      	ldr	r2, [pc, #32]	@ (800111c <carroTransversalCreateTask+0x48>)
 80010fa:	4909      	ldr	r1, [pc, #36]	@ (8001120 <carroTransversalCreateTask+0x4c>)
 80010fc:	4809      	ldr	r0, [pc, #36]	@ (8001124 <carroTransversalCreateTask+0x50>)
 80010fe:	9400      	str	r4, [sp, #0]
 8001100:	f003 fcfe 	bl	8004b00 <OSTaskCreate>
 8001104:	f8bd 302e 	ldrh.w	r3, [sp, #46]	@ 0x2e
 8001108:	b90b      	cbnz	r3, 800110e <carroTransversalCreateTask+0x3a>
 800110a:	b00c      	add	sp, #48	@ 0x30
 800110c:	bd10      	pop	{r4, pc}
 800110e:	f000 f83b 	bl	8001188 <Error_Handler>
 8001112:	b00c      	add	sp, #48	@ 0x30
 8001114:	bd10      	pop	{r4, pc}
 8001116:	bf00      	nop
 8001118:	200004dc 	.word	0x200004dc
 800111c:	08000df9 	.word	0x08000df9
 8001120:	08005950 	.word	0x08005950
 8001124:	200008dc 	.word	0x200008dc

08001128 <programStartTask>:
 8001128:	b500      	push	{lr}
 800112a:	b085      	sub	sp, #20
 800112c:	f000 fa88 	bl	8001640 <MX_GPIO_Init>
 8001130:	f000 fa58 	bl	80015e4 <MX_DMA_Init>
 8001134:	f000 f8d8 	bl	80012e8 <MX_ADC2_Init>
 8001138:	f000 f916 	bl	8001368 <MX_ADC3_Init>
 800113c:	f000 f95c 	bl	80013f8 <MX_DAC_Init>
 8001140:	f000 f98e 	bl	8001460 <MX_TIM1_Init>
 8001144:	f000 fa14 	bl	8001570 <MX_TIM2_Init>
 8001148:	480d      	ldr	r0, [pc, #52]	@ (8001180 <programStartTask+0x58>)
 800114a:	4e0e      	ldr	r6, [pc, #56]	@ (8001184 <programStartTask+0x5c>)
 800114c:	2201      	movs	r2, #1
 800114e:	f44f 51a0 	mov.w	r1, #5120	@ 0x1400
 8001152:	f001 fbc1 	bl	80028d8 <HAL_GPIO_WritePin>
 8001156:	f7ff ffbd 	bl	80010d4 <carroTransversalCreateTask>
 800115a:	f7ff fe23 	bl	8000da4 <motorBobinaCreateTask>
 800115e:	f10d 050e 	add.w	r5, sp, #14
 8001162:	2410      	movs	r4, #16
 8001164:	4630      	mov	r0, r6
 8001166:	f44f 5100 	mov.w	r1, #8192	@ 0x2000
 800116a:	f001 fbb9 	bl	80028e0 <HAL_GPIO_TogglePin>
 800116e:	2300      	movs	r3, #0
 8001170:	e9cd 4500 	strd	r4, r5, [sp]
 8001174:	2201      	movs	r2, #1
 8001176:	4619      	mov	r1, r3
 8001178:	4618      	mov	r0, r3
 800117a:	f004 f8c9 	bl	8005310 <OSTimeDlyHMSM>
 800117e:	e7f1      	b.n	8001164 <programStartTask+0x3c>
 8001180:	40021000 	.word	0x40021000
 8001184:	40021400 	.word	0x40021400

08001188 <Error_Handler>:
 8001188:	b508      	push	{r3, lr}
 800118a:	b672      	cpsid	i
 800118c:	4803      	ldr	r0, [pc, #12]	@ (800119c <Error_Handler+0x14>)
 800118e:	2200      	movs	r2, #0
 8001190:	f44f 4180 	mov.w	r1, #16384	@ 0x4000
 8001194:	f001 fba0 	bl	80028d8 <HAL_GPIO_WritePin>
 8001198:	e7fe      	b.n	8001198 <Error_Handler+0x10>
 800119a:	bf00      	nop
 800119c:	40021400 	.word	0x40021400

080011a0 <main>:
 80011a0:	b500      	push	{lr}
 80011a2:	b08d      	sub	sp, #52	@ 0x34
 80011a4:	f000 fcee 	bl	8001b84 <HAL_Init>
 80011a8:	f000 f842 	bl	8001230 <SystemClock_Config>
 80011ac:	f002 fa92 	bl	80036d4 <CPU_Init>
 80011b0:	f10d 002e 	add.w	r0, sp, #46	@ 0x2e
 80011b4:	f002 fbb2 	bl	800391c <OSInit>
 80011b8:	f8bd 202e 	ldrh.w	r2, [sp, #46]	@ 0x2e
 80011bc:	b942      	cbnz	r2, 80011d0 <main+0x30>
 80011be:	f10d 032e 	add.w	r3, sp, #46	@ 0x2e
 80011c2:	4915      	ldr	r1, [pc, #84]	@ (8001218 <main+0x78>)
 80011c4:	4815      	ldr	r0, [pc, #84]	@ (800121c <main+0x7c>)
 80011c6:	f002 ff65 	bl	8004094 <OSFlagCreate>
 80011ca:	f8bd 302e 	ldrh.w	r3, [sp, #46]	@ 0x2e
 80011ce:	b10b      	cbz	r3, 80011d4 <main+0x34>
 80011d0:	f7ff ffda 	bl	8001188 <Error_Handler>
 80011d4:	4912      	ldr	r1, [pc, #72]	@ (8001220 <main+0x80>)
 80011d6:	f44f 7480 	mov.w	r4, #256	@ 0x100
 80011da:	6e4a      	ldr	r2, [r1, #100]	@ 0x64
 80011dc:	9403      	str	r4, [sp, #12]
 80011de:	2003      	movs	r0, #3
 80011e0:	f10d 042e 	add.w	r4, sp, #46	@ 0x2e
 80011e4:	e9cd 0407 	strd	r0, r4, [sp, #28]
 80011e8:	2005      	movs	r0, #5
 80011ea:	e9cd 0100 	strd	r0, r1, [sp]
 80011ee:	e9cd 3305 	strd	r3, r3, [sp, #20]
 80011f2:	9304      	str	r3, [sp, #16]
 80011f4:	9202      	str	r2, [sp, #8]
 80011f6:	490b      	ldr	r1, [pc, #44]	@ (8001224 <main+0x84>)
 80011f8:	4a0b      	ldr	r2, [pc, #44]	@ (8001228 <main+0x88>)
 80011fa:	480c      	ldr	r0, [pc, #48]	@ (800122c <main+0x8c>)
 80011fc:	f003 fc80 	bl	8004b00 <OSTaskCreate>
 8001200:	f8bd 302e 	ldrh.w	r3, [sp, #46]	@ 0x2e
 8001204:	2b00      	cmp	r3, #0
 8001206:	d1e3      	bne.n	80011d0 <main+0x30>
 8001208:	4620      	mov	r0, r4
 800120a:	f002 fce5 	bl	8003bd8 <OSStart>
 800120e:	f8bd 302e 	ldrh.w	r3, [sp, #46]	@ 0x2e
 8001212:	2b00      	cmp	r3, #0
 8001214:	d1dc      	bne.n	80011d0 <main+0x30>
 8001216:	e7fe      	b.n	8001216 <main+0x76>
 8001218:	08005984 	.word	0x08005984
 800121c:	20000e2c 	.word	0x20000e2c
 8001220:	20000984 	.word	0x20000984
 8001224:	08005994 	.word	0x08005994
 8001228:	08001129 	.word	0x08001129
 800122c:	20000d84 	.word	0x20000d84

08001230 <SystemClock_Config>:
 8001230:	b510      	push	{r4, lr}
 8001232:	2300      	movs	r3, #0
 8001234:	b094      	sub	sp, #80	@ 0x50
 8001236:	e9cd 330a 	strd	r3, r3, [sp, #40]	@ 0x28
 800123a:	e9cd 330c 	strd	r3, r3, [sp, #48]	@ 0x30
 800123e:	e9cd 3303 	strd	r3, r3, [sp, #12]
 8001242:	e9cd 3305 	strd	r3, r3, [sp, #20]
 8001246:	4925      	ldr	r1, [pc, #148]	@ (80012dc <SystemClock_Config+0xac>)
 8001248:	9301      	str	r3, [sp, #4]
 800124a:	9307      	str	r3, [sp, #28]
 800124c:	6c08      	ldr	r0, [r1, #64]	@ 0x40
 800124e:	4a24      	ldr	r2, [pc, #144]	@ (80012e0 <SystemClock_Config+0xb0>)
 8001250:	f040 5080 	orr.w	r0, r0, #268435456	@ 0x10000000
 8001254:	6408      	str	r0, [r1, #64]	@ 0x40
 8001256:	6c09      	ldr	r1, [r1, #64]	@ 0x40
 8001258:	f001 5180 	and.w	r1, r1, #268435456	@ 0x10000000
 800125c:	9101      	str	r1, [sp, #4]
 800125e:	9901      	ldr	r1, [sp, #4]
 8001260:	9302      	str	r3, [sp, #8]
 8001262:	6813      	ldr	r3, [r2, #0]
 8001264:	f443 4380 	orr.w	r3, r3, #16384	@ 0x4000
 8001268:	6013      	str	r3, [r2, #0]
 800126a:	6813      	ldr	r3, [r2, #0]
 800126c:	2001      	movs	r0, #1
 800126e:	f44f 3180 	mov.w	r1, #65536	@ 0x10000
 8001272:	e9cd 0108 	strd	r0, r1, [sp, #32]
 8001276:	2002      	movs	r0, #2
 8001278:	f44f 0180 	mov.w	r1, #4194304	@ 0x400000
 800127c:	e9cd 010e 	strd	r0, r1, [sp, #56]	@ 0x38
 8001280:	f403 4380 	and.w	r3, r3, #16384	@ 0x4000
 8001284:	2002      	movs	r0, #2
 8001286:	2104      	movs	r1, #4
 8001288:	9302      	str	r3, [sp, #8]
 800128a:	e9cd 0112 	strd	r0, r1, [sp, #72]	@ 0x48
 800128e:	220f      	movs	r2, #15
 8001290:	23c0      	movs	r3, #192	@ 0xc0
 8001292:	a808      	add	r0, sp, #32
 8001294:	e9cd 2310 	strd	r2, r3, [sp, #64]	@ 0x40
 8001298:	9c02      	ldr	r4, [sp, #8]
 800129a:	f001 fb37 	bl	800290c <HAL_RCC_OscConfig>
 800129e:	b9a0      	cbnz	r0, 80012ca <SystemClock_Config+0x9a>
 80012a0:	210f      	movs	r1, #15
 80012a2:	2302      	movs	r3, #2
 80012a4:	e9cd 1303 	strd	r1, r3, [sp, #12]
 80012a8:	2400      	movs	r4, #0
 80012aa:	f44f 52a0 	mov.w	r2, #5120	@ 0x1400
 80012ae:	f44f 5380 	mov.w	r3, #4096	@ 0x1000
 80012b2:	a803      	add	r0, sp, #12
 80012b4:	2105      	movs	r1, #5
 80012b6:	e9cd 4205 	strd	r4, r2, [sp, #20]
 80012ba:	9307      	str	r3, [sp, #28]
 80012bc:	f001 fd42 	bl	8002d44 <HAL_RCC_ClockConfig>
 80012c0:	b930      	cbnz	r0, 80012d0 <SystemClock_Config+0xa0>
 80012c2:	f001 fd05 	bl	8002cd0 <HAL_RCC_EnableCSS>
 80012c6:	b014      	add	sp, #80	@ 0x50
 80012c8:	bd10      	pop	{r4, pc}
 80012ca:	f7ff ff5d 	bl	8001188 <Error_Handler>
 80012ce:	e7e7      	b.n	80012a0 <SystemClock_Config+0x70>
 80012d0:	f7ff ff5a 	bl	8001188 <Error_Handler>
 80012d4:	f001 fcfc 	bl	8002cd0 <HAL_RCC_EnableCSS>
 80012d8:	b014      	add	sp, #80	@ 0x50
 80012da:	bd10      	pop	{r4, pc}
 80012dc:	40023800 	.word	0x40023800
 80012e0:	40007000 	.word	0x40007000
 80012e4:	00000000 	.word	0x00000000

080012e8 <MX_ADC2_Init>:
 80012e8:	b500      	push	{lr}
 80012ea:	481d      	ldr	r0, [pc, #116]	@ (8001360 <MX_ADC2_Init+0x78>)
 80012ec:	491d      	ldr	r1, [pc, #116]	@ (8001364 <MX_ADC2_Init+0x7c>)
 80012ee:	2300      	movs	r3, #0
 80012f0:	2201      	movs	r2, #1
 80012f2:	b085      	sub	sp, #20
 80012f4:	e9cd 3300 	strd	r3, r3, [sp]
 80012f8:	e9cd 3302 	strd	r3, r3, [sp, #8]
 80012fc:	e9c0 1300 	strd	r1, r3, [r0]
 8001300:	6083      	str	r3, [r0, #8]
 8001302:	6102      	str	r2, [r0, #16]
 8001304:	7603      	strb	r3, [r0, #24]
 8001306:	f880 3020 	strb.w	r3, [r0, #32]
 800130a:	60c3      	str	r3, [r0, #12]
 800130c:	6143      	str	r3, [r0, #20]
 800130e:	61c2      	str	r2, [r0, #28]
 8001310:	f880 2030 	strb.w	r2, [r0, #48]	@ 0x30
 8001314:	f04f 5380 	mov.w	r3, #268435456	@ 0x10000000
 8001318:	f04f 62c0 	mov.w	r2, #100663296	@ 0x6000000
 800131c:	e9c0 230a 	strd	r2, r3, [r0, #40]	@ 0x28
 8001320:	f000 fc50 	bl	8001bc4 <HAL_ADC_Init>
 8001324:	b968      	cbnz	r0, 8001342 <MX_ADC2_Init+0x5a>
 8001326:	ed9f 7b0c 	vldr	d7, [pc, #48]	@ 8001358 <MX_ADC2_Init+0x70>
 800132a:	2306      	movs	r3, #6
 800132c:	480c      	ldr	r0, [pc, #48]	@ (8001360 <MX_ADC2_Init+0x78>)
 800132e:	9302      	str	r3, [sp, #8]
 8001330:	4669      	mov	r1, sp
 8001332:	ed8d 7b00 	vstr	d7, [sp]
 8001336:	f000 fdeb 	bl	8001f10 <HAL_ADC_ConfigChannel>
 800133a:	b928      	cbnz	r0, 8001348 <MX_ADC2_Init+0x60>
 800133c:	b005      	add	sp, #20
 800133e:	f85d fb04 	ldr.w	pc, [sp], #4
 8001342:	f7ff ff21 	bl	8001188 <Error_Handler>
 8001346:	e7ee      	b.n	8001326 <MX_ADC2_Init+0x3e>
 8001348:	f7ff ff1e 	bl	8001188 <Error_Handler>
 800134c:	b005      	add	sp, #20
 800134e:	f85d fb04 	ldr.w	pc, [sp], #4
 8001352:	bf00      	nop
 8001354:	f3af 8000 	nop.w
 8001358:	00000006 	.word	0x00000006
 800135c:	00000001 	.word	0x00000001
 8001360:	200010b0 	.word	0x200010b0
 8001364:	40012100 	.word	0x40012100

08001368 <MX_ADC3_Init>:
 8001368:	b500      	push	{lr}
 800136a:	4821      	ldr	r0, [pc, #132]	@ (80013f0 <MX_ADC3_Init+0x88>)
 800136c:	4921      	ldr	r1, [pc, #132]	@ (80013f4 <MX_ADC3_Init+0x8c>)
 800136e:	2300      	movs	r3, #0
 8001370:	b085      	sub	sp, #20
 8001372:	2201      	movs	r2, #1
 8001374:	e9cd 3300 	strd	r3, r3, [sp]
 8001378:	e9cd 3302 	strd	r3, r3, [sp, #8]
 800137c:	e9c0 1300 	strd	r1, r3, [r0]
 8001380:	6083      	str	r3, [r0, #8]
 8001382:	6102      	str	r2, [r0, #16]
 8001384:	f880 2030 	strb.w	r2, [r0, #48]	@ 0x30
 8001388:	7603      	strb	r3, [r0, #24]
 800138a:	f880 3020 	strb.w	r3, [r0, #32]
 800138e:	60c3      	str	r3, [r0, #12]
 8001390:	6143      	str	r3, [r0, #20]
 8001392:	f04f 62c0 	mov.w	r2, #100663296	@ 0x6000000
 8001396:	f04f 5380 	mov.w	r3, #268435456	@ 0x10000000
 800139a:	e9c0 230a 	strd	r2, r3, [r0, #40]	@ 0x28
 800139e:	2302      	movs	r3, #2
 80013a0:	61c3      	str	r3, [r0, #28]
 80013a2:	f000 fc0f 	bl	8001bc4 <HAL_ADC_Init>
 80013a6:	b9a0      	cbnz	r0, 80013d2 <MX_ADC3_Init+0x6a>
 80013a8:	ed9f 7b0f 	vldr	d7, [pc, #60]	@ 80013e8 <MX_ADC3_Init+0x80>
 80013ac:	2303      	movs	r3, #3
 80013ae:	4810      	ldr	r0, [pc, #64]	@ (80013f0 <MX_ADC3_Init+0x88>)
 80013b0:	9302      	str	r3, [sp, #8]
 80013b2:	4669      	mov	r1, sp
 80013b4:	ed8d 7b00 	vstr	d7, [sp]
 80013b8:	f000 fdaa 	bl	8001f10 <HAL_ADC_ConfigChannel>
 80013bc:	b988      	cbnz	r0, 80013e2 <MX_ADC3_Init+0x7a>
 80013be:	2302      	movs	r3, #2
 80013c0:	480b      	ldr	r0, [pc, #44]	@ (80013f0 <MX_ADC3_Init+0x88>)
 80013c2:	9301      	str	r3, [sp, #4]
 80013c4:	4669      	mov	r1, sp
 80013c6:	f000 fda3 	bl	8001f10 <HAL_ADC_ConfigChannel>
 80013ca:	b928      	cbnz	r0, 80013d8 <MX_ADC3_Init+0x70>
 80013cc:	b005      	add	sp, #20
 80013ce:	f85d fb04 	ldr.w	pc, [sp], #4
 80013d2:	f7ff fed9 	bl	8001188 <Error_Handler>
 80013d6:	e7e7      	b.n	80013a8 <MX_ADC3_Init+0x40>
 80013d8:	f7ff fed6 	bl	8001188 <Error_Handler>
 80013dc:	b005      	add	sp, #20
 80013de:	f85d fb04 	ldr.w	pc, [sp], #4
 80013e2:	f7ff fed1 	bl	8001188 <Error_Handler>
 80013e6:	e7ea      	b.n	80013be <MX_ADC3_Init+0x56>
 80013e8:	00000004 	.word	0x00000004
 80013ec:	00000001 	.word	0x00000001
 80013f0:	20001068 	.word	0x20001068
 80013f4:	40012200 	.word	0x40012200

080013f8 <MX_DAC_Init>:
 80013f8:	b500      	push	{lr}
 80013fa:	4817      	ldr	r0, [pc, #92]	@ (8001458 <MX_DAC_Init+0x60>)
 80013fc:	4a17      	ldr	r2, [pc, #92]	@ (800145c <MX_DAC_Init+0x64>)
 80013fe:	6002      	str	r2, [r0, #0]
 8001400:	b083      	sub	sp, #12
 8001402:	2300      	movs	r3, #0
 8001404:	e9cd 3300 	strd	r3, r3, [sp]
 8001408:	f000 fea0 	bl	800214c <HAL_DAC_Init>
 800140c:	b990      	cbnz	r0, 8001434 <MX_DAC_Init+0x3c>
 800140e:	ed9f 7b10 	vldr	d7, [pc, #64]	@ 8001450 <MX_DAC_Init+0x58>
 8001412:	4811      	ldr	r0, [pc, #68]	@ (8001458 <MX_DAC_Init+0x60>)
 8001414:	2200      	movs	r2, #0
 8001416:	4669      	mov	r1, sp
 8001418:	ed8d 7b00 	vstr	d7, [sp]
 800141c:	f000 ff46 	bl	80022ac <HAL_DAC_ConfigChannel>
 8001420:	b980      	cbnz	r0, 8001444 <MX_DAC_Init+0x4c>
 8001422:	480d      	ldr	r0, [pc, #52]	@ (8001458 <MX_DAC_Init+0x60>)
 8001424:	2210      	movs	r2, #16
 8001426:	4669      	mov	r1, sp
 8001428:	f000 ff40 	bl	80022ac <HAL_DAC_ConfigChannel>
 800142c:	b928      	cbnz	r0, 800143a <MX_DAC_Init+0x42>
 800142e:	b003      	add	sp, #12
 8001430:	f85d fb04 	ldr.w	pc, [sp], #4
 8001434:	f7ff fea8 	bl	8001188 <Error_Handler>
 8001438:	e7e9      	b.n	800140e <MX_DAC_Init+0x16>
 800143a:	f7ff fea5 	bl	8001188 <Error_Handler>
 800143e:	b003      	add	sp, #12
 8001440:	f85d fb04 	ldr.w	pc, [sp], #4
 8001444:	f7ff fea0 	bl	8001188 <Error_Handler>
 8001448:	e7eb      	b.n	8001422 <MX_DAC_Init+0x2a>
 800144a:	bf00      	nop
 800144c:	f3af 8000 	nop.w
 8001450:	00000024 	.word	0x00000024
 8001454:	00000000 	.word	0x00000000
 8001458:	20000f90 	.word	0x20000f90
 800145c:	40007400 	.word	0x40007400

08001460 <MX_TIM1_Init>:
 8001460:	b510      	push	{r4, lr}
 8001462:	2400      	movs	r4, #0
 8001464:	b096      	sub	sp, #88	@ 0x58
 8001466:	2220      	movs	r2, #32
 8001468:	4621      	mov	r1, r4
 800146a:	a80e      	add	r0, sp, #56	@ 0x38
 800146c:	e9cd 4403 	strd	r4, r4, [sp, #12]
 8001470:	e9cd 4407 	strd	r4, r4, [sp, #28]
 8001474:	e9cd 4409 	strd	r4, r4, [sp, #36]	@ 0x24
 8001478:	e9cd 440b 	strd	r4, r4, [sp, #44]	@ 0x2c
 800147c:	9402      	str	r4, [sp, #8]
 800147e:	9400      	str	r4, [sp, #0]
 8001480:	9406      	str	r4, [sp, #24]
 8001482:	9405      	str	r4, [sp, #20]
 8001484:	9401      	str	r4, [sp, #4]
 8001486:	f004 fa17 	bl	80058b8 <memset>
 800148a:	4837      	ldr	r0, [pc, #220]	@ (8001568 <MX_TIM1_Init+0x108>)
 800148c:	4a37      	ldr	r2, [pc, #220]	@ (800156c <MX_TIM1_Init+0x10c>)
 800148e:	6184      	str	r4, [r0, #24]
 8001490:	234f      	movs	r3, #79	@ 0x4f
 8001492:	e9c0 2300 	strd	r2, r3, [r0]
 8001496:	2363      	movs	r3, #99	@ 0x63
 8001498:	e9c0 4302 	strd	r4, r3, [r0, #8]
 800149c:	e9c0 4404 	strd	r4, r4, [r0, #16]
 80014a0:	f001 fcee 	bl	8002e80 <HAL_TIM_Base_Init>
 80014a4:	2800      	cmp	r0, #0
 80014a6:	d13b      	bne.n	8001520 <MX_TIM1_Init+0xc0>
 80014a8:	f44f 5380 	mov.w	r3, #4096	@ 0x1000
 80014ac:	482e      	ldr	r0, [pc, #184]	@ (8001568 <MX_TIM1_Init+0x108>)
 80014ae:	9302      	str	r3, [sp, #8]
 80014b0:	a902      	add	r1, sp, #8
 80014b2:	f001 ffb7 	bl	8003424 <HAL_TIM_ConfigClockSource>
 80014b6:	2800      	cmp	r0, #0
 80014b8:	d145      	bne.n	8001546 <MX_TIM1_Init+0xe6>
 80014ba:	482b      	ldr	r0, [pc, #172]	@ (8001568 <MX_TIM1_Init+0x108>)
 80014bc:	f001 fdb0 	bl	8003020 <HAL_TIM_PWM_Init>
 80014c0:	2800      	cmp	r0, #0
 80014c2:	d13d      	bne.n	8001540 <MX_TIM1_Init+0xe0>
 80014c4:	2200      	movs	r2, #0
 80014c6:	2300      	movs	r3, #0
 80014c8:	4827      	ldr	r0, [pc, #156]	@ (8001568 <MX_TIM1_Init+0x108>)
 80014ca:	4669      	mov	r1, sp
 80014cc:	e9cd 2300 	strd	r2, r3, [sp]
 80014d0:	f002 f852 	bl	8003578 <HAL_TIMEx_MasterConfigSynchronization>
 80014d4:	bb88      	cbnz	r0, 800153a <MX_TIM1_Init+0xda>
 80014d6:	ed9f 7b1e 	vldr	d7, [pc, #120]	@ 8001550 <MX_TIM1_Init+0xf0>
 80014da:	ed8d 7b06 	vstr	d7, [sp, #24]
 80014de:	ed9f 7b1e 	vldr	d7, [pc, #120]	@ 8001558 <MX_TIM1_Init+0xf8>
 80014e2:	2300      	movs	r3, #0
 80014e4:	4820      	ldr	r0, [pc, #128]	@ (8001568 <MX_TIM1_Init+0x108>)
 80014e6:	9308      	str	r3, [sp, #32]
 80014e8:	a906      	add	r1, sp, #24
 80014ea:	220c      	movs	r2, #12
 80014ec:	ed8d 7b0a 	vstr	d7, [sp, #40]	@ 0x28
 80014f0:	930c      	str	r3, [sp, #48]	@ 0x30
 80014f2:	f001 fe93 	bl	800321c <HAL_TIM_PWM_ConfigChannel>
 80014f6:	b9e8      	cbnz	r0, 8001534 <MX_TIM1_Init+0xd4>
 80014f8:	ed9f 7b19 	vldr	d7, [pc, #100]	@ 8001560 <MX_TIM1_Init+0x100>
 80014fc:	2300      	movs	r3, #0
 80014fe:	481a      	ldr	r0, [pc, #104]	@ (8001568 <MX_TIM1_Init+0x108>)
 8001500:	9315      	str	r3, [sp, #84]	@ 0x54
 8001502:	a90e      	add	r1, sp, #56	@ 0x38
 8001504:	ed8d 7b12 	vstr	d7, [sp, #72]	@ 0x48
 8001508:	e9cd 330e 	strd	r3, r3, [sp, #56]	@ 0x38
 800150c:	e9cd 3310 	strd	r3, r3, [sp, #64]	@ 0x40
 8001510:	f002 f872 	bl	80035f8 <HAL_TIMEx_ConfigBreakDeadTime>
 8001514:	b938      	cbnz	r0, 8001526 <MX_TIM1_Init+0xc6>
 8001516:	4814      	ldr	r0, [pc, #80]	@ (8001568 <MX_TIM1_Init+0x108>)
 8001518:	f000 fab6 	bl	8001a88 <HAL_TIM_MspPostInit>
 800151c:	b016      	add	sp, #88	@ 0x58
 800151e:	bd10      	pop	{r4, pc}
 8001520:	f7ff fe32 	bl	8001188 <Error_Handler>
 8001524:	e7c0      	b.n	80014a8 <MX_TIM1_Init+0x48>
 8001526:	f7ff fe2f 	bl	8001188 <Error_Handler>
 800152a:	480f      	ldr	r0, [pc, #60]	@ (8001568 <MX_TIM1_Init+0x108>)
 800152c:	f000 faac 	bl	8001a88 <HAL_TIM_MspPostInit>
 8001530:	b016      	add	sp, #88	@ 0x58
 8001532:	bd10      	pop	{r4, pc}
 8001534:	f7ff fe28 	bl	8001188 <Error_Handler>
 8001538:	e7de      	b.n	80014f8 <MX_TIM1_Init+0x98>
 800153a:	f7ff fe25 	bl	8001188 <Error_Handler>
 800153e:	e7ca      	b.n	80014d6 <MX_TIM1_Init+0x76>
 8001540:	f7ff fe22 	bl	8001188 <Error_Handler>
 8001544:	e7be      	b.n	80014c4 <MX_TIM1_Init+0x64>
 8001546:	f7ff fe1f 	bl	8001188 <Error_Handler>
 800154a:	e7b6      	b.n	80014ba <MX_TIM1_Init+0x5a>
 800154c:	f3af 8000 	nop.w
 8001550:	00000060 	.word	0x00000060
	...
 8001564:	00002000 	.word	0x00002000
 8001568:	20000e88 	.word	0x20000e88
 800156c:	40010000 	.word	0x40010000

08001570 <MX_TIM2_Init>:
 8001570:	b500      	push	{lr}
 8001572:	481b      	ldr	r0, [pc, #108]	@ (80015e0 <MX_TIM2_Init+0x70>)
 8001574:	f04f 4280 	mov.w	r2, #1073741824	@ 0x40000000
 8001578:	6002      	str	r2, [r0, #0]
 800157a:	2263      	movs	r2, #99	@ 0x63
 800157c:	2300      	movs	r3, #0
 800157e:	6042      	str	r2, [r0, #4]
 8001580:	22f9      	movs	r2, #249	@ 0xf9
 8001582:	b087      	sub	sp, #28
 8001584:	e9c0 3202 	strd	r3, r2, [r0, #8]
 8001588:	2280      	movs	r2, #128	@ 0x80
 800158a:	e9cd 3302 	strd	r3, r3, [sp, #8]
 800158e:	e9cd 3304 	strd	r3, r3, [sp, #16]
 8001592:	e9cd 3300 	strd	r3, r3, [sp]
 8001596:	6103      	str	r3, [r0, #16]
 8001598:	6182      	str	r2, [r0, #24]
 800159a:	f001 fc71 	bl	8002e80 <HAL_TIM_Base_Init>
 800159e:	b998      	cbnz	r0, 80015c8 <MX_TIM2_Init+0x58>
 80015a0:	f44f 5380 	mov.w	r3, #4096	@ 0x1000
 80015a4:	480e      	ldr	r0, [pc, #56]	@ (80015e0 <MX_TIM2_Init+0x70>)
 80015a6:	9302      	str	r3, [sp, #8]
 80015a8:	a902      	add	r1, sp, #8
 80015aa:	f001 ff3b 	bl	8003424 <HAL_TIM_ConfigClockSource>
 80015ae:	b998      	cbnz	r0, 80015d8 <MX_TIM2_Init+0x68>
 80015b0:	2220      	movs	r2, #32
 80015b2:	2300      	movs	r3, #0
 80015b4:	480a      	ldr	r0, [pc, #40]	@ (80015e0 <MX_TIM2_Init+0x70>)
 80015b6:	4669      	mov	r1, sp
 80015b8:	e9cd 2300 	strd	r2, r3, [sp]
 80015bc:	f001 ffdc 	bl	8003578 <HAL_TIMEx_MasterConfigSynchronization>
 80015c0:	b928      	cbnz	r0, 80015ce <MX_TIM2_Init+0x5e>
 80015c2:	b007      	add	sp, #28
 80015c4:	f85d fb04 	ldr.w	pc, [sp], #4
 80015c8:	f7ff fdde 	bl	8001188 <Error_Handler>
 80015cc:	e7e8      	b.n	80015a0 <MX_TIM2_Init+0x30>
 80015ce:	f7ff fddb 	bl	8001188 <Error_Handler>
 80015d2:	b007      	add	sp, #28
 80015d4:	f85d fb04 	ldr.w	pc, [sp], #4
 80015d8:	f7ff fdd6 	bl	8001188 <Error_Handler>
 80015dc:	e7e8      	b.n	80015b0 <MX_TIM2_Init+0x40>
 80015de:	bf00      	nop
 80015e0:	20000e3c 	.word	0x20000e3c

080015e4 <MX_DMA_Init>:
 80015e4:	b510      	push	{r4, lr}
 80015e6:	b082      	sub	sp, #8
 80015e8:	2400      	movs	r4, #0
 80015ea:	4b14      	ldr	r3, [pc, #80]	@ (800163c <MX_DMA_Init+0x58>)
 80015ec:	9400      	str	r4, [sp, #0]
 80015ee:	6b19      	ldr	r1, [r3, #48]	@ 0x30
 80015f0:	f441 0180 	orr.w	r1, r1, #4194304	@ 0x400000
 80015f4:	6319      	str	r1, [r3, #48]	@ 0x30
 80015f6:	6b18      	ldr	r0, [r3, #48]	@ 0x30
 80015f8:	f400 0080 	and.w	r0, r0, #4194304	@ 0x400000
 80015fc:	9000      	str	r0, [sp, #0]
 80015fe:	9800      	ldr	r0, [sp, #0]
 8001600:	9401      	str	r4, [sp, #4]
 8001602:	6b18      	ldr	r0, [r3, #48]	@ 0x30
 8001604:	f440 1000 	orr.w	r0, r0, #2097152	@ 0x200000
 8001608:	6318      	str	r0, [r3, #48]	@ 0x30
 800160a:	6b1b      	ldr	r3, [r3, #48]	@ 0x30
 800160c:	f403 1300 	and.w	r3, r3, #2097152	@ 0x200000
 8001610:	4622      	mov	r2, r4
 8001612:	4621      	mov	r1, r4
 8001614:	9301      	str	r3, [sp, #4]
 8001616:	2038      	movs	r0, #56	@ 0x38
 8001618:	9b01      	ldr	r3, [sp, #4]
 800161a:	f000 fd33 	bl	8002084 <HAL_NVIC_SetPriority>
 800161e:	2038      	movs	r0, #56	@ 0x38
 8001620:	f000 fd6c 	bl	80020fc <HAL_NVIC_EnableIRQ>
 8001624:	4622      	mov	r2, r4
 8001626:	4621      	mov	r1, r4
 8001628:	203a      	movs	r0, #58	@ 0x3a
 800162a:	f000 fd2b 	bl	8002084 <HAL_NVIC_SetPriority>
 800162e:	203a      	movs	r0, #58	@ 0x3a
 8001630:	b002      	add	sp, #8
 8001632:	e8bd 4010 	ldmia.w	sp!, {r4, lr}
 8001636:	f000 bd61 	b.w	80020fc <HAL_NVIC_EnableIRQ>
 800163a:	bf00      	nop
 800163c:	40023800 	.word	0x40023800

08001640 <MX_GPIO_Init>:
 8001640:	b5f0      	push	{r4, r5, r6, r7, lr}
 8001642:	2400      	movs	r4, #0
 8001644:	b08f      	sub	sp, #60	@ 0x3c
 8001646:	e9cd 4408 	strd	r4, r4, [sp, #32]
 800164a:	e9cd 440a 	strd	r4, r4, [sp, #40]	@ 0x28
 800164e:	4b63      	ldr	r3, [pc, #396]	@ (80017dc <MX_GPIO_Init+0x19c>)
 8001650:	9401      	str	r4, [sp, #4]
 8001652:	940c      	str	r4, [sp, #48]	@ 0x30
 8001654:	6b1a      	ldr	r2, [r3, #48]	@ 0x30
 8001656:	4e62      	ldr	r6, [pc, #392]	@ (80017e0 <MX_GPIO_Init+0x1a0>)
 8001658:	4d62      	ldr	r5, [pc, #392]	@ (80017e4 <MX_GPIO_Init+0x1a4>)
 800165a:	4f63      	ldr	r7, [pc, #396]	@ (80017e8 <MX_GPIO_Init+0x1a8>)
 800165c:	f042 0210 	orr.w	r2, r2, #16
 8001660:	631a      	str	r2, [r3, #48]	@ 0x30
 8001662:	6b1a      	ldr	r2, [r3, #48]	@ 0x30
 8001664:	f002 0210 	and.w	r2, r2, #16
 8001668:	9201      	str	r2, [sp, #4]
 800166a:	9a01      	ldr	r2, [sp, #4]
 800166c:	9402      	str	r4, [sp, #8]
 800166e:	6b1a      	ldr	r2, [r3, #48]	@ 0x30
 8001670:	f042 0220 	orr.w	r2, r2, #32
 8001674:	631a      	str	r2, [r3, #48]	@ 0x30
 8001676:	6b1a      	ldr	r2, [r3, #48]	@ 0x30
 8001678:	f002 0220 	and.w	r2, r2, #32
 800167c:	9202      	str	r2, [sp, #8]
 800167e:	9a02      	ldr	r2, [sp, #8]
 8001680:	9403      	str	r4, [sp, #12]
 8001682:	6b1a      	ldr	r2, [r3, #48]	@ 0x30
 8001684:	f042 0280 	orr.w	r2, r2, #128	@ 0x80
 8001688:	631a      	str	r2, [r3, #48]	@ 0x30
 800168a:	6b1a      	ldr	r2, [r3, #48]	@ 0x30
 800168c:	f002 0280 	and.w	r2, r2, #128	@ 0x80
 8001690:	9203      	str	r2, [sp, #12]
 8001692:	9a03      	ldr	r2, [sp, #12]
 8001694:	9404      	str	r4, [sp, #16]
 8001696:	6b1a      	ldr	r2, [r3, #48]	@ 0x30
 8001698:	f042 0201 	orr.w	r2, r2, #1
 800169c:	631a      	str	r2, [r3, #48]	@ 0x30
 800169e:	6b1a      	ldr	r2, [r3, #48]	@ 0x30
 80016a0:	f002 0201 	and.w	r2, r2, #1
 80016a4:	9204      	str	r2, [sp, #16]
 80016a6:	9a04      	ldr	r2, [sp, #16]
 80016a8:	9405      	str	r4, [sp, #20]
 80016aa:	6b1a      	ldr	r2, [r3, #48]	@ 0x30
 80016ac:	f042 0240 	orr.w	r2, r2, #64	@ 0x40
 80016b0:	631a      	str	r2, [r3, #48]	@ 0x30
 80016b2:	6b1a      	ldr	r2, [r3, #48]	@ 0x30
 80016b4:	f002 0240 	and.w	r2, r2, #64	@ 0x40
 80016b8:	9205      	str	r2, [sp, #20]
 80016ba:	9a05      	ldr	r2, [sp, #20]
 80016bc:	9406      	str	r4, [sp, #24]
 80016be:	6b1a      	ldr	r2, [r3, #48]	@ 0x30
 80016c0:	f042 0208 	orr.w	r2, r2, #8
 80016c4:	631a      	str	r2, [r3, #48]	@ 0x30
 80016c6:	6b1a      	ldr	r2, [r3, #48]	@ 0x30
 80016c8:	f002 0208 	and.w	r2, r2, #8
 80016cc:	9206      	str	r2, [sp, #24]
 80016ce:	9a06      	ldr	r2, [sp, #24]
 80016d0:	9407      	str	r4, [sp, #28]
 80016d2:	6b1a      	ldr	r2, [r3, #48]	@ 0x30
 80016d4:	f042 0202 	orr.w	r2, r2, #2
 80016d8:	631a      	str	r2, [r3, #48]	@ 0x30
 80016da:	6b1b      	ldr	r3, [r3, #48]	@ 0x30
 80016dc:	f003 0302 	and.w	r3, r3, #2
 80016e0:	9307      	str	r3, [sp, #28]
 80016e2:	4622      	mov	r2, r4
 80016e4:	4630      	mov	r0, r6
 80016e6:	f44f 51f3 	mov.w	r1, #7776	@ 0x1e60
 80016ea:	9b07      	ldr	r3, [sp, #28]
 80016ec:	f001 f8f4 	bl	80028d8 <HAL_GPIO_WritePin>
 80016f0:	4622      	mov	r2, r4
 80016f2:	4628      	mov	r0, r5
 80016f4:	f44f 7140 	mov.w	r1, #768	@ 0x300
 80016f8:	f001 f8ee 	bl	80028d8 <HAL_GPIO_WritePin>
 80016fc:	4628      	mov	r0, r5
 80016fe:	2201      	movs	r2, #1
 8001700:	f44f 4160 	mov.w	r1, #57344	@ 0xe000
 8001704:	f001 f8e8 	bl	80028d8 <HAL_GPIO_WritePin>
 8001708:	2201      	movs	r2, #1
 800170a:	4638      	mov	r0, r7
 800170c:	2103      	movs	r1, #3
 800170e:	f001 f8e3 	bl	80028d8 <HAL_GPIO_WritePin>
 8001712:	4630      	mov	r0, r6
 8001714:	a908      	add	r1, sp, #32
 8001716:	2601      	movs	r6, #1
 8001718:	f44f 53f3 	mov.w	r3, #7776	@ 0x1e60
 800171c:	9609      	str	r6, [sp, #36]	@ 0x24
 800171e:	9308      	str	r3, [sp, #32]
 8001720:	e9cd 440a 	strd	r4, r4, [sp, #40]	@ 0x28
 8001724:	f000 ffb4 	bl	8002690 <HAL_GPIO_Init>
 8001728:	a908      	add	r1, sp, #32
 800172a:	4628      	mov	r0, r5
 800172c:	f44f 7340 	mov.w	r3, #768	@ 0x300
 8001730:	9609      	str	r6, [sp, #36]	@ 0x24
 8001732:	9308      	str	r3, [sp, #32]
 8001734:	2611      	movs	r6, #17
 8001736:	e9cd 440a 	strd	r4, r4, [sp, #40]	@ 0x28
 800173a:	f000 ffa9 	bl	8002690 <HAL_GPIO_Init>
 800173e:	4628      	mov	r0, r5
 8001740:	f44f 4360 	mov.w	r3, #57344	@ 0xe000
 8001744:	a908      	add	r1, sp, #32
 8001746:	e9cd 3608 	strd	r3, r6, [sp, #32]
 800174a:	f5a5 6500 	sub.w	r5, r5, #2048	@ 0x800
 800174e:	e9cd 440a 	strd	r4, r4, [sp, #40]	@ 0x28
 8001752:	f000 ff9d 	bl	8002690 <HAL_GPIO_Init>
 8001756:	a908      	add	r1, sp, #32
 8001758:	4638      	mov	r0, r7
 800175a:	2303      	movs	r3, #3
 800175c:	9308      	str	r3, [sp, #32]
 800175e:	e9cd 440a 	strd	r4, r4, [sp, #40]	@ 0x28
 8001762:	9609      	str	r6, [sp, #36]	@ 0x24
 8001764:	f000 ff94 	bl	8002690 <HAL_GPIO_Init>
 8001768:	f44f 5270 	mov.w	r2, #15360	@ 0x3c00
 800176c:	2300      	movs	r3, #0
 800176e:	a908      	add	r1, sp, #32
 8001770:	4628      	mov	r0, r5
 8001772:	e9cd 2308 	strd	r2, r3, [sp, #32]
 8001776:	940a      	str	r4, [sp, #40]	@ 0x28
 8001778:	f000 ff8a 	bl	8002690 <HAL_GPIO_Init>
 800177c:	4628      	mov	r0, r5
 800177e:	f24c 0208 	movw	r2, #49160	@ 0xc008
 8001782:	f44f 1304 	mov.w	r3, #2162688	@ 0x210000
 8001786:	a908      	add	r1, sp, #32
 8001788:	e9cd 2308 	strd	r2, r3, [sp, #32]
 800178c:	940a      	str	r4, [sp, #40]	@ 0x28
 800178e:	f000 ff7f 	bl	8002690 <HAL_GPIO_Init>
 8001792:	a908      	add	r1, sp, #32
 8001794:	f44f 4200 	mov.w	r2, #32768	@ 0x8000
 8001798:	2300      	movs	r3, #0
 800179a:	4814      	ldr	r0, [pc, #80]	@ (80017ec <MX_GPIO_Init+0x1ac>)
 800179c:	940a      	str	r4, [sp, #40]	@ 0x28
 800179e:	e9cd 2308 	strd	r2, r3, [sp, #32]
 80017a2:	f000 ff75 	bl	8002690 <HAL_GPIO_Init>
 80017a6:	2300      	movs	r3, #0
 80017a8:	2208      	movs	r2, #8
 80017aa:	a908      	add	r1, sp, #32
 80017ac:	4810      	ldr	r0, [pc, #64]	@ (80017f0 <MX_GPIO_Init+0x1b0>)
 80017ae:	940a      	str	r4, [sp, #40]	@ 0x28
 80017b0:	e9cd 2308 	strd	r2, r3, [sp, #32]
 80017b4:	f000 ff6c 	bl	8002690 <HAL_GPIO_Init>
 80017b8:	4622      	mov	r2, r4
 80017ba:	4621      	mov	r1, r4
 80017bc:	2009      	movs	r0, #9
 80017be:	f000 fc61 	bl	8002084 <HAL_NVIC_SetPriority>
 80017c2:	2009      	movs	r0, #9
 80017c4:	f000 fc9a 	bl	80020fc <HAL_NVIC_EnableIRQ>
 80017c8:	4622      	mov	r2, r4
 80017ca:	4621      	mov	r1, r4
 80017cc:	2028      	movs	r0, #40	@ 0x28
 80017ce:	f000 fc59 	bl	8002084 <HAL_NVIC_SetPriority>
 80017d2:	2028      	movs	r0, #40	@ 0x28
 80017d4:	f000 fc92 	bl	80020fc <HAL_NVIC_EnableIRQ>
 80017d8:	b00f      	add	sp, #60	@ 0x3c
 80017da:	bdf0      	pop	{r4, r5, r6, r7, pc}
 80017dc:	40023800 	.word	0x40023800
 80017e0:	40021000 	.word	0x40021000
 80017e4:	40021400 	.word	0x40021400
 80017e8:	40021800 	.word	0x40021800
 80017ec:	40020000 	.word	0x40020000
 80017f0:	40020400 	.word	0x40020400

080017f4 <HAL_MspInit>:
 80017f4:	b082      	sub	sp, #8
 80017f6:	4b0c      	ldr	r3, [pc, #48]	@ (8001828 <HAL_MspInit+0x34>)
 80017f8:	2100      	movs	r1, #0
 80017fa:	9100      	str	r1, [sp, #0]
 80017fc:	6c5a      	ldr	r2, [r3, #68]	@ 0x44
 80017fe:	f442 4280 	orr.w	r2, r2, #16384	@ 0x4000
 8001802:	645a      	str	r2, [r3, #68]	@ 0x44
 8001804:	6c5a      	ldr	r2, [r3, #68]	@ 0x44
 8001806:	f402 4280 	and.w	r2, r2, #16384	@ 0x4000
 800180a:	9200      	str	r2, [sp, #0]
 800180c:	9a00      	ldr	r2, [sp, #0]
 800180e:	9101      	str	r1, [sp, #4]
 8001810:	6c1a      	ldr	r2, [r3, #64]	@ 0x40
 8001812:	f042 5280 	orr.w	r2, r2, #268435456	@ 0x10000000
 8001816:	641a      	str	r2, [r3, #64]	@ 0x40
 8001818:	6c1b      	ldr	r3, [r3, #64]	@ 0x40
 800181a:	f003 5380 	and.w	r3, r3, #268435456	@ 0x10000000
 800181e:	9301      	str	r3, [sp, #4]
 8001820:	9b01      	ldr	r3, [sp, #4]
 8001822:	b002      	add	sp, #8
 8001824:	4770      	bx	lr
 8001826:	bf00      	nop
 8001828:	40023800 	.word	0x40023800

0800182c <HAL_ADC_MspInit>:
 800182c:	b570      	push	{r4, r5, r6, lr}
 800182e:	6803      	ldr	r3, [r0, #0]
 8001830:	4a37      	ldr	r2, [pc, #220]	@ (8001910 <HAL_ADC_MspInit+0xe4>)
 8001832:	b08a      	sub	sp, #40	@ 0x28
 8001834:	2400      	movs	r4, #0
 8001836:	4293      	cmp	r3, r2
 8001838:	e9cd 4404 	strd	r4, r4, [sp, #16]
 800183c:	e9cd 4406 	strd	r4, r4, [sp, #24]
 8001840:	4605      	mov	r5, r0
 8001842:	9408      	str	r4, [sp, #32]
 8001844:	d004      	beq.n	8001850 <HAL_ADC_MspInit+0x24>
 8001846:	4a33      	ldr	r2, [pc, #204]	@ (8001914 <HAL_ADC_MspInit+0xe8>)
 8001848:	4293      	cmp	r3, r2
 800184a:	d03c      	beq.n	80018c6 <HAL_ADC_MspInit+0x9a>
 800184c:	b00a      	add	sp, #40	@ 0x28
 800184e:	bd70      	pop	{r4, r5, r6, pc}
 8001850:	4b31      	ldr	r3, [pc, #196]	@ (8001918 <HAL_ADC_MspInit+0xec>)
 8001852:	9400      	str	r4, [sp, #0]
 8001854:	6c5a      	ldr	r2, [r3, #68]	@ 0x44
 8001856:	4831      	ldr	r0, [pc, #196]	@ (800191c <HAL_ADC_MspInit+0xf0>)
 8001858:	4e31      	ldr	r6, [pc, #196]	@ (8001920 <HAL_ADC_MspInit+0xf4>)
 800185a:	f442 7200 	orr.w	r2, r2, #512	@ 0x200
 800185e:	645a      	str	r2, [r3, #68]	@ 0x44
 8001860:	6c5a      	ldr	r2, [r3, #68]	@ 0x44
 8001862:	f402 7200 	and.w	r2, r2, #512	@ 0x200
 8001866:	9200      	str	r2, [sp, #0]
 8001868:	9a00      	ldr	r2, [sp, #0]
 800186a:	9401      	str	r4, [sp, #4]
 800186c:	6b1a      	ldr	r2, [r3, #48]	@ 0x30
 800186e:	f042 0201 	orr.w	r2, r2, #1
 8001872:	631a      	str	r2, [r3, #48]	@ 0x30
 8001874:	6b1b      	ldr	r3, [r3, #48]	@ 0x30
 8001876:	f003 0301 	and.w	r3, r3, #1
 800187a:	9301      	str	r3, [sp, #4]
 800187c:	2240      	movs	r2, #64	@ 0x40
 800187e:	2303      	movs	r3, #3
 8001880:	a904      	add	r1, sp, #16
 8001882:	e9cd 2304 	strd	r2, r3, [sp, #16]
 8001886:	9b01      	ldr	r3, [sp, #4]
 8001888:	f000 ff02 	bl	8002690 <HAL_GPIO_Init>
 800188c:	4a25      	ldr	r2, [pc, #148]	@ (8001924 <HAL_ADC_MspInit+0xf8>)
 800188e:	f04f 7300 	mov.w	r3, #33554432	@ 0x2000000
 8001892:	e9c6 2300 	strd	r2, r3, [r6]
 8001896:	f44f 6280 	mov.w	r2, #1024	@ 0x400
 800189a:	f44f 6300 	mov.w	r3, #2048	@ 0x800
 800189e:	e9c6 2304 	strd	r2, r3, [r6, #16]
 80018a2:	f44f 5200 	mov.w	r2, #8192	@ 0x2000
 80018a6:	f44f 7380 	mov.w	r3, #256	@ 0x100
 80018aa:	e9c6 4402 	strd	r4, r4, [r6, #8]
 80018ae:	e9c6 2306 	strd	r2, r3, [r6, #24]
 80018b2:	e9c6 4408 	strd	r4, r4, [r6, #32]
 80018b6:	4630      	mov	r0, r6
 80018b8:	f000 fd42 	bl	8002340 <HAL_DMA_Init>
 80018bc:	bb28      	cbnz	r0, 800190a <HAL_ADC_MspInit+0xde>
 80018be:	63ae      	str	r6, [r5, #56]	@ 0x38
 80018c0:	63b5      	str	r5, [r6, #56]	@ 0x38
 80018c2:	b00a      	add	sp, #40	@ 0x28
 80018c4:	bd70      	pop	{r4, r5, r6, pc}
 80018c6:	4b14      	ldr	r3, [pc, #80]	@ (8001918 <HAL_ADC_MspInit+0xec>)
 80018c8:	9402      	str	r4, [sp, #8]
 80018ca:	6c5a      	ldr	r2, [r3, #68]	@ 0x44
 80018cc:	4816      	ldr	r0, [pc, #88]	@ (8001928 <HAL_ADC_MspInit+0xfc>)
 80018ce:	4e17      	ldr	r6, [pc, #92]	@ (800192c <HAL_ADC_MspInit+0x100>)
 80018d0:	f442 6280 	orr.w	r2, r2, #1024	@ 0x400
 80018d4:	645a      	str	r2, [r3, #68]	@ 0x44
 80018d6:	6c5a      	ldr	r2, [r3, #68]	@ 0x44
 80018d8:	f402 6280 	and.w	r2, r2, #1024	@ 0x400
 80018dc:	9202      	str	r2, [sp, #8]
 80018de:	9a02      	ldr	r2, [sp, #8]
 80018e0:	9403      	str	r4, [sp, #12]
 80018e2:	6b1a      	ldr	r2, [r3, #48]	@ 0x30
 80018e4:	f042 0220 	orr.w	r2, r2, #32
 80018e8:	631a      	str	r2, [r3, #48]	@ 0x30
 80018ea:	6b1b      	ldr	r3, [r3, #48]	@ 0x30
 80018ec:	f003 0320 	and.w	r3, r3, #32
 80018f0:	9303      	str	r3, [sp, #12]
 80018f2:	22c0      	movs	r2, #192	@ 0xc0
 80018f4:	2303      	movs	r3, #3
 80018f6:	a904      	add	r1, sp, #16
 80018f8:	e9cd 2304 	strd	r2, r3, [sp, #16]
 80018fc:	9b03      	ldr	r3, [sp, #12]
 80018fe:	f000 fec7 	bl	8002690 <HAL_GPIO_Init>
 8001902:	4a0b      	ldr	r2, [pc, #44]	@ (8001930 <HAL_ADC_MspInit+0x104>)
 8001904:	f04f 6380 	mov.w	r3, #67108864	@ 0x4000000
 8001908:	e7c3      	b.n	8001892 <HAL_ADC_MspInit+0x66>
 800190a:	f7ff fc3d 	bl	8001188 <Error_Handler>
 800190e:	e7d6      	b.n	80018be <HAL_ADC_MspInit+0x92>
 8001910:	40012100 	.word	0x40012100
 8001914:	40012200 	.word	0x40012200
 8001918:	40023800 	.word	0x40023800
 800191c:	40020000 	.word	0x40020000
 8001920:	20001004 	.word	0x20001004
 8001924:	40026440 	.word	0x40026440
 8001928:	40021400 	.word	0x40021400
 800192c:	20000fa4 	.word	0x20000fa4
 8001930:	40026410 	.word	0x40026410

08001934 <HAL_DAC_MspInit>:
 8001934:	b570      	push	{r4, r5, r6, lr}
 8001936:	4b37      	ldr	r3, [pc, #220]	@ (8001a14 <HAL_DAC_MspInit+0xe0>)
 8001938:	6802      	ldr	r2, [r0, #0]
 800193a:	b088      	sub	sp, #32
 800193c:	2400      	movs	r4, #0
 800193e:	429a      	cmp	r2, r3
 8001940:	e9cd 4402 	strd	r4, r4, [sp, #8]
 8001944:	e9cd 4404 	strd	r4, r4, [sp, #16]
 8001948:	9406      	str	r4, [sp, #24]
 800194a:	d001      	beq.n	8001950 <HAL_DAC_MspInit+0x1c>
 800194c:	b008      	add	sp, #32
 800194e:	bd70      	pop	{r4, r5, r6, pc}
 8001950:	f503 33e2 	add.w	r3, r3, #115712	@ 0x1c400
 8001954:	9400      	str	r4, [sp, #0]
 8001956:	6c1a      	ldr	r2, [r3, #64]	@ 0x40
 8001958:	4e2f      	ldr	r6, [pc, #188]	@ (8001a18 <HAL_DAC_MspInit+0xe4>)
 800195a:	f042 5200 	orr.w	r2, r2, #536870912	@ 0x20000000
 800195e:	641a      	str	r2, [r3, #64]	@ 0x40
 8001960:	6c1a      	ldr	r2, [r3, #64]	@ 0x40
 8001962:	f002 5200 	and.w	r2, r2, #536870912	@ 0x20000000
 8001966:	9200      	str	r2, [sp, #0]
 8001968:	9a00      	ldr	r2, [sp, #0]
 800196a:	9401      	str	r4, [sp, #4]
 800196c:	6b1a      	ldr	r2, [r3, #48]	@ 0x30
 800196e:	f042 0201 	orr.w	r2, r2, #1
 8001972:	631a      	str	r2, [r3, #48]	@ 0x30
 8001974:	6b1b      	ldr	r3, [r3, #48]	@ 0x30
 8001976:	f003 0301 	and.w	r3, r3, #1
 800197a:	9301      	str	r3, [sp, #4]
 800197c:	2230      	movs	r2, #48	@ 0x30
 800197e:	2303      	movs	r3, #3
 8001980:	4605      	mov	r5, r0
 8001982:	a902      	add	r1, sp, #8
 8001984:	4825      	ldr	r0, [pc, #148]	@ (8001a1c <HAL_DAC_MspInit+0xe8>)
 8001986:	e9cd 2302 	strd	r2, r3, [sp, #8]
 800198a:	9b01      	ldr	r3, [sp, #4]
 800198c:	f000 fe80 	bl	8002690 <HAL_GPIO_Init>
 8001990:	4a23      	ldr	r2, [pc, #140]	@ (8001a20 <HAL_DAC_MspInit+0xec>)
 8001992:	6274      	str	r4, [r6, #36]	@ 0x24
 8001994:	f04f 6360 	mov.w	r3, #234881024	@ 0xe000000
 8001998:	e9c6 2300 	strd	r2, r3, [r6]
 800199c:	2240      	movs	r2, #64	@ 0x40
 800199e:	f44f 6380 	mov.w	r3, #1024	@ 0x400
 80019a2:	e9c6 2402 	strd	r2, r4, [r6, #8]
 80019a6:	6133      	str	r3, [r6, #16]
 80019a8:	f44f 6200 	mov.w	r2, #2048	@ 0x800
 80019ac:	f44f 5300 	mov.w	r3, #8192	@ 0x2000
 80019b0:	e9c6 2305 	strd	r2, r3, [r6, #20]
 80019b4:	4630      	mov	r0, r6
 80019b6:	f44f 7380 	mov.w	r3, #256	@ 0x100
 80019ba:	e9c6 3407 	strd	r3, r4, [r6, #28]
 80019be:	f000 fcbf 	bl	8002340 <HAL_DMA_Init>
 80019c2:	bb08      	cbnz	r0, 8001a08 <HAL_DAC_MspInit+0xd4>
 80019c4:	4c17      	ldr	r4, [pc, #92]	@ (8001a24 <HAL_DAC_MspInit+0xf0>)
 80019c6:	4918      	ldr	r1, [pc, #96]	@ (8001a28 <HAL_DAC_MspInit+0xf4>)
 80019c8:	60ae      	str	r6, [r5, #8]
 80019ca:	f04f 6260 	mov.w	r2, #234881024	@ 0xe000000
 80019ce:	2300      	movs	r3, #0
 80019d0:	e9c4 1200 	strd	r1, r2, [r4]
 80019d4:	2140      	movs	r1, #64	@ 0x40
 80019d6:	f44f 6280 	mov.w	r2, #1024	@ 0x400
 80019da:	e9c4 1302 	strd	r1, r3, [r4, #8]
 80019de:	6122      	str	r2, [r4, #16]
 80019e0:	f44f 6100 	mov.w	r1, #2048	@ 0x800
 80019e4:	f44f 5200 	mov.w	r2, #8192	@ 0x2000
 80019e8:	e9c4 1205 	strd	r1, r2, [r4, #20]
 80019ec:	4620      	mov	r0, r4
 80019ee:	f44f 7280 	mov.w	r2, #256	@ 0x100
 80019f2:	e9c4 2307 	strd	r2, r3, [r4, #28]
 80019f6:	63b5      	str	r5, [r6, #56]	@ 0x38
 80019f8:	6263      	str	r3, [r4, #36]	@ 0x24
 80019fa:	f000 fca1 	bl	8002340 <HAL_DMA_Init>
 80019fe:	b930      	cbnz	r0, 8001a0e <HAL_DAC_MspInit+0xda>
 8001a00:	60ec      	str	r4, [r5, #12]
 8001a02:	63a5      	str	r5, [r4, #56]	@ 0x38
 8001a04:	b008      	add	sp, #32
 8001a06:	bd70      	pop	{r4, r5, r6, pc}
 8001a08:	f7ff fbbe 	bl	8001188 <Error_Handler>
 8001a0c:	e7da      	b.n	80019c4 <HAL_DAC_MspInit+0x90>
 8001a0e:	f7ff fbbb 	bl	8001188 <Error_Handler>
 8001a12:	e7f5      	b.n	8001a00 <HAL_DAC_MspInit+0xcc>
 8001a14:	40007400 	.word	0x40007400
 8001a18:	20000f30 	.word	0x20000f30
 8001a1c:	40020000 	.word	0x40020000
 8001a20:	40026088 	.word	0x40026088
 8001a24:	20000ed0 	.word	0x20000ed0
 8001a28:	400260a0 	.word	0x400260a0

08001a2c <HAL_TIM_Base_MspInit>:
 8001a2c:	4a13      	ldr	r2, [pc, #76]	@ (8001a7c <HAL_TIM_Base_MspInit+0x50>)
 8001a2e:	6803      	ldr	r3, [r0, #0]
 8001a30:	4293      	cmp	r3, r2
 8001a32:	b082      	sub	sp, #8
 8001a34:	d013      	beq.n	8001a5e <HAL_TIM_Base_MspInit+0x32>
 8001a36:	f1b3 4f80 	cmp.w	r3, #1073741824	@ 0x40000000
 8001a3a:	d001      	beq.n	8001a40 <HAL_TIM_Base_MspInit+0x14>
 8001a3c:	b002      	add	sp, #8
 8001a3e:	4770      	bx	lr
 8001a40:	f503 330e 	add.w	r3, r3, #145408	@ 0x23800
 8001a44:	2200      	movs	r2, #0
 8001a46:	9201      	str	r2, [sp, #4]
 8001a48:	6c1a      	ldr	r2, [r3, #64]	@ 0x40
 8001a4a:	f042 0201 	orr.w	r2, r2, #1
 8001a4e:	641a      	str	r2, [r3, #64]	@ 0x40
 8001a50:	6c1b      	ldr	r3, [r3, #64]	@ 0x40
 8001a52:	f003 0301 	and.w	r3, r3, #1
 8001a56:	9301      	str	r3, [sp, #4]
 8001a58:	9b01      	ldr	r3, [sp, #4]
 8001a5a:	b002      	add	sp, #8
 8001a5c:	4770      	bx	lr
 8001a5e:	4b08      	ldr	r3, [pc, #32]	@ (8001a80 <HAL_TIM_Base_MspInit+0x54>)
 8001a60:	2200      	movs	r2, #0
 8001a62:	9200      	str	r2, [sp, #0]
 8001a64:	6c5a      	ldr	r2, [r3, #68]	@ 0x44
 8001a66:	f042 0201 	orr.w	r2, r2, #1
 8001a6a:	645a      	str	r2, [r3, #68]	@ 0x44
 8001a6c:	6c5b      	ldr	r3, [r3, #68]	@ 0x44
 8001a6e:	f003 0301 	and.w	r3, r3, #1
 8001a72:	9300      	str	r3, [sp, #0]
 8001a74:	9b00      	ldr	r3, [sp, #0]
 8001a76:	b002      	add	sp, #8
 8001a78:	4770      	bx	lr
 8001a7a:	bf00      	nop
 8001a7c:	40010000 	.word	0x40010000
 8001a80:	40023800 	.word	0x40023800
 8001a84:	00000000 	.word	0x00000000

08001a88 <HAL_TIM_MspPostInit>:
 8001a88:	b500      	push	{lr}
 8001a8a:	4a15      	ldr	r2, [pc, #84]	@ (8001ae0 <HAL_TIM_MspPostInit+0x58>)
 8001a8c:	6801      	ldr	r1, [r0, #0]
 8001a8e:	b089      	sub	sp, #36	@ 0x24
 8001a90:	2300      	movs	r3, #0
 8001a92:	4291      	cmp	r1, r2
 8001a94:	e9cd 3302 	strd	r3, r3, [sp, #8]
 8001a98:	e9cd 3304 	strd	r3, r3, [sp, #16]
 8001a9c:	9306      	str	r3, [sp, #24]
 8001a9e:	d002      	beq.n	8001aa6 <HAL_TIM_MspPostInit+0x1e>
 8001aa0:	b009      	add	sp, #36	@ 0x24
 8001aa2:	f85d fb04 	ldr.w	pc, [sp], #4
 8001aa6:	f502 329c 	add.w	r2, r2, #79872	@ 0x13800
 8001aaa:	9301      	str	r3, [sp, #4]
 8001aac:	6b13      	ldr	r3, [r2, #48]	@ 0x30
 8001aae:	480d      	ldr	r0, [pc, #52]	@ (8001ae4 <HAL_TIM_MspPostInit+0x5c>)
 8001ab0:	f043 0310 	orr.w	r3, r3, #16
 8001ab4:	6313      	str	r3, [r2, #48]	@ 0x30
 8001ab6:	6b13      	ldr	r3, [r2, #48]	@ 0x30
 8001ab8:	ed9f 7b07 	vldr	d7, [pc, #28]	@ 8001ad8 <HAL_TIM_MspPostInit+0x50>
 8001abc:	f003 0310 	and.w	r3, r3, #16
 8001ac0:	9301      	str	r3, [sp, #4]
 8001ac2:	a902      	add	r1, sp, #8
 8001ac4:	2301      	movs	r3, #1
 8001ac6:	ed8d 7b02 	vstr	d7, [sp, #8]
 8001aca:	9a01      	ldr	r2, [sp, #4]
 8001acc:	9306      	str	r3, [sp, #24]
 8001ace:	f000 fddf 	bl	8002690 <HAL_GPIO_Init>
 8001ad2:	b009      	add	sp, #36	@ 0x24
 8001ad4:	f85d fb04 	ldr.w	pc, [sp], #4
 8001ad8:	00004000 	.word	0x00004000
 8001adc:	00000002 	.word	0x00000002
 8001ae0:	40010000 	.word	0x40010000
 8001ae4:	40021000 	.word	0x40021000

08001ae8 <NMI_Handler>:
 8001ae8:	e7fe      	b.n	8001ae8 <NMI_Handler>
 8001aea:	bf00      	nop

08001aec <HardFault_Handler>:
 8001aec:	e7fe      	b.n	8001aec <HardFault_Handler>
 8001aee:	bf00      	nop

08001af0 <MemManage_Handler>:
 8001af0:	e7fe      	b.n	8001af0 <MemManage_Handler>
 8001af2:	bf00      	nop

08001af4 <BusFault_Handler>:
 8001af4:	e7fe      	b.n	8001af4 <BusFault_Handler>
 8001af6:	bf00      	nop

08001af8 <UsageFault_Handler>:
 8001af8:	e7fe      	b.n	8001af8 <UsageFault_Handler>
 8001afa:	bf00      	nop

08001afc <SVC_Handler>:
 8001afc:	4770      	bx	lr
 8001afe:	bf00      	nop

08001b00 <DebugMon_Handler>:
 8001b00:	4770      	bx	lr
 8001b02:	bf00      	nop

08001b04 <EXTI3_IRQHandler>:
 8001b04:	2008      	movs	r0, #8
 8001b06:	f000 bef5 	b.w	80028f4 <HAL_GPIO_EXTI_IRQHandler>
 8001b0a:	bf00      	nop

08001b0c <EXTI15_10_IRQHandler>:
 8001b0c:	b508      	push	{r3, lr}
 8001b0e:	f44f 4080 	mov.w	r0, #16384	@ 0x4000
 8001b12:	f000 feef 	bl	80028f4 <HAL_GPIO_EXTI_IRQHandler>
 8001b16:	e8bd 4008 	ldmia.w	sp!, {r3, lr}
 8001b1a:	f44f 4000 	mov.w	r0, #32768	@ 0x8000
 8001b1e:	f000 bee9 	b.w	80028f4 <HAL_GPIO_EXTI_IRQHandler>
 8001b22:	bf00      	nop

08001b24 <DMA2_Stream0_IRQHandler>:
 8001b24:	4801      	ldr	r0, [pc, #4]	@ (8001b2c <DMA2_Stream0_IRQHandler+0x8>)
 8001b26:	f000 bcdd 	b.w	80024e4 <HAL_DMA_IRQHandler>
 8001b2a:	bf00      	nop
 8001b2c:	20000fa4 	.word	0x20000fa4

08001b30 <DMA2_Stream2_IRQHandler>:
 8001b30:	4801      	ldr	r0, [pc, #4]	@ (8001b38 <DMA2_Stream2_IRQHandler+0x8>)
 8001b32:	f000 bcd7 	b.w	80024e4 <HAL_DMA_IRQHandler>
 8001b36:	bf00      	nop
 8001b38:	20001004 	.word	0x20001004

08001b3c <HAL_InitTick>:
 8001b3c:	b538      	push	{r3, r4, r5, lr}
 8001b3e:	4a0e      	ldr	r2, [pc, #56]	@ (8001b78 <HAL_InitTick+0x3c>)
 8001b40:	4b0e      	ldr	r3, [pc, #56]	@ (8001b7c <HAL_InitTick+0x40>)
 8001b42:	7812      	ldrb	r2, [r2, #0]
 8001b44:	681b      	ldr	r3, [r3, #0]
 8001b46:	4605      	mov	r5, r0
 8001b48:	f44f 707a 	mov.w	r0, #1000	@ 0x3e8
 8001b4c:	fbb0 f0f2 	udiv	r0, r0, r2
 8001b50:	fbb3 f0f0 	udiv	r0, r3, r0
 8001b54:	f000 fae0 	bl	8002118 <HAL_SYSTICK_Config>
 8001b58:	b908      	cbnz	r0, 8001b5e <HAL_InitTick+0x22>
 8001b5a:	2d0f      	cmp	r5, #15
 8001b5c:	d901      	bls.n	8001b62 <HAL_InitTick+0x26>
 8001b5e:	2001      	movs	r0, #1
 8001b60:	bd38      	pop	{r3, r4, r5, pc}
 8001b62:	4604      	mov	r4, r0
 8001b64:	4602      	mov	r2, r0
 8001b66:	4629      	mov	r1, r5
 8001b68:	f04f 30ff 	mov.w	r0, #4294967295
 8001b6c:	f000 fa8a 	bl	8002084 <HAL_NVIC_SetPriority>
 8001b70:	4b03      	ldr	r3, [pc, #12]	@ (8001b80 <HAL_InitTick+0x44>)
 8001b72:	4620      	mov	r0, r4
 8001b74:	601d      	str	r5, [r3, #0]
 8001b76:	bd38      	pop	{r3, r4, r5, pc}
 8001b78:	20000000 	.word	0x20000000
 8001b7c:	20000008 	.word	0x20000008
 8001b80:	20000004 	.word	0x20000004

08001b84 <HAL_Init>:
 8001b84:	b508      	push	{r3, lr}
 8001b86:	4b0b      	ldr	r3, [pc, #44]	@ (8001bb4 <HAL_Init+0x30>)
 8001b88:	681a      	ldr	r2, [r3, #0]
 8001b8a:	f442 7200 	orr.w	r2, r2, #512	@ 0x200
 8001b8e:	601a      	str	r2, [r3, #0]
 8001b90:	681a      	ldr	r2, [r3, #0]
 8001b92:	f442 6280 	orr.w	r2, r2, #1024	@ 0x400
 8001b96:	601a      	str	r2, [r3, #0]
 8001b98:	681a      	ldr	r2, [r3, #0]
 8001b9a:	f442 7280 	orr.w	r2, r2, #256	@ 0x100
 8001b9e:	601a      	str	r2, [r3, #0]
 8001ba0:	2003      	movs	r0, #3
 8001ba2:	f000 fa5d 	bl	8002060 <HAL_NVIC_SetPriorityGrouping>
 8001ba6:	200f      	movs	r0, #15
 8001ba8:	f7ff ffc8 	bl	8001b3c <HAL_InitTick>
 8001bac:	f7ff fe22 	bl	80017f4 <HAL_MspInit>
 8001bb0:	2000      	movs	r0, #0
 8001bb2:	bd08      	pop	{r3, pc}
 8001bb4:	40023c00 	.word	0x40023c00

08001bb8 <HAL_GetTick>:
 8001bb8:	4b01      	ldr	r3, [pc, #4]	@ (8001bc0 <HAL_GetTick+0x8>)
 8001bba:	6818      	ldr	r0, [r3, #0]
 8001bbc:	4770      	bx	lr
 8001bbe:	bf00      	nop
 8001bc0:	200010f8 	.word	0x200010f8

08001bc4 <HAL_ADC_Init>:
 8001bc4:	2800      	cmp	r0, #0
 8001bc6:	f000 809e 	beq.w	8001d06 <HAL_ADC_Init+0x142>
 8001bca:	b538      	push	{r3, r4, r5, lr}
 8001bcc:	6c05      	ldr	r5, [r0, #64]	@ 0x40
 8001bce:	4604      	mov	r4, r0
 8001bd0:	b13d      	cbz	r5, 8001be2 <HAL_ADC_Init+0x1e>
 8001bd2:	6c23      	ldr	r3, [r4, #64]	@ 0x40
 8001bd4:	06db      	lsls	r3, r3, #27
 8001bd6:	d50c      	bpl.n	8001bf2 <HAL_ADC_Init+0x2e>
 8001bd8:	2300      	movs	r3, #0
 8001bda:	f884 303c 	strb.w	r3, [r4, #60]	@ 0x3c
 8001bde:	2001      	movs	r0, #1
 8001be0:	bd38      	pop	{r3, r4, r5, pc}
 8001be2:	f7ff fe23 	bl	800182c <HAL_ADC_MspInit>
 8001be6:	6465      	str	r5, [r4, #68]	@ 0x44
 8001be8:	6c23      	ldr	r3, [r4, #64]	@ 0x40
 8001bea:	f884 503c 	strb.w	r5, [r4, #60]	@ 0x3c
 8001bee:	06db      	lsls	r3, r3, #27
 8001bf0:	d4f2      	bmi.n	8001bd8 <HAL_ADC_Init+0x14>
 8001bf2:	6c23      	ldr	r3, [r4, #64]	@ 0x40
 8001bf4:	4a47      	ldr	r2, [pc, #284]	@ (8001d14 <HAL_ADC_Init+0x150>)
 8001bf6:	f423 5388 	bic.w	r3, r3, #4352	@ 0x1100
 8001bfa:	f023 0302 	bic.w	r3, r3, #2
 8001bfe:	f043 0302 	orr.w	r3, r3, #2
 8001c02:	6423      	str	r3, [r4, #64]	@ 0x40
 8001c04:	6851      	ldr	r1, [r2, #4]
 8001c06:	6823      	ldr	r3, [r4, #0]
 8001c08:	f421 3140 	bic.w	r1, r1, #196608	@ 0x30000
 8001c0c:	6051      	str	r1, [r2, #4]
 8001c0e:	6851      	ldr	r1, [r2, #4]
 8001c10:	6860      	ldr	r0, [r4, #4]
 8001c12:	4301      	orrs	r1, r0
 8001c14:	6051      	str	r1, [r2, #4]
 8001c16:	685a      	ldr	r2, [r3, #4]
 8001c18:	6920      	ldr	r0, [r4, #16]
 8001c1a:	68a1      	ldr	r1, [r4, #8]
 8001c1c:	f422 7280 	bic.w	r2, r2, #256	@ 0x100
 8001c20:	605a      	str	r2, [r3, #4]
 8001c22:	685a      	ldr	r2, [r3, #4]
 8001c24:	ea42 2200 	orr.w	r2, r2, r0, lsl #8
 8001c28:	605a      	str	r2, [r3, #4]
 8001c2a:	685a      	ldr	r2, [r3, #4]
 8001c2c:	68e0      	ldr	r0, [r4, #12]
 8001c2e:	f022 7240 	bic.w	r2, r2, #50331648	@ 0x3000000
 8001c32:	605a      	str	r2, [r3, #4]
 8001c34:	685a      	ldr	r2, [r3, #4]
 8001c36:	430a      	orrs	r2, r1
 8001c38:	605a      	str	r2, [r3, #4]
 8001c3a:	689a      	ldr	r2, [r3, #8]
 8001c3c:	6aa1      	ldr	r1, [r4, #40]	@ 0x28
 8001c3e:	f422 6200 	bic.w	r2, r2, #2048	@ 0x800
 8001c42:	609a      	str	r2, [r3, #8]
 8001c44:	689a      	ldr	r2, [r3, #8]
 8001c46:	4302      	orrs	r2, r0
 8001c48:	609a      	str	r2, [r3, #8]
 8001c4a:	4a33      	ldr	r2, [pc, #204]	@ (8001d18 <HAL_ADC_Init+0x154>)
 8001c4c:	4291      	cmp	r1, r2
 8001c4e:	689a      	ldr	r2, [r3, #8]
 8001c50:	d051      	beq.n	8001cf6 <HAL_ADC_Init+0x132>
 8001c52:	f022 6270 	bic.w	r2, r2, #251658240	@ 0xf000000
 8001c56:	6ae0      	ldr	r0, [r4, #44]	@ 0x2c
 8001c58:	609a      	str	r2, [r3, #8]
 8001c5a:	689a      	ldr	r2, [r3, #8]
 8001c5c:	4311      	orrs	r1, r2
 8001c5e:	6099      	str	r1, [r3, #8]
 8001c60:	689a      	ldr	r2, [r3, #8]
 8001c62:	f022 5240 	bic.w	r2, r2, #805306368	@ 0x30000000
 8001c66:	609a      	str	r2, [r3, #8]
 8001c68:	689a      	ldr	r2, [r3, #8]
 8001c6a:	4302      	orrs	r2, r0
 8001c6c:	609a      	str	r2, [r3, #8]
 8001c6e:	689a      	ldr	r2, [r3, #8]
 8001c70:	f022 0202 	bic.w	r2, r2, #2
 8001c74:	609a      	str	r2, [r3, #8]
 8001c76:	689a      	ldr	r2, [r3, #8]
 8001c78:	7e21      	ldrb	r1, [r4, #24]
 8001c7a:	ea42 0241 	orr.w	r2, r2, r1, lsl #1
 8001c7e:	609a      	str	r2, [r3, #8]
 8001c80:	f894 2020 	ldrb.w	r2, [r4, #32]
 8001c84:	2a00      	cmp	r2, #0
 8001c86:	d040      	beq.n	8001d0a <HAL_ADC_Init+0x146>
 8001c88:	685a      	ldr	r2, [r3, #4]
 8001c8a:	6a61      	ldr	r1, [r4, #36]	@ 0x24
 8001c8c:	f442 6200 	orr.w	r2, r2, #2048	@ 0x800
 8001c90:	605a      	str	r2, [r3, #4]
 8001c92:	685a      	ldr	r2, [r3, #4]
 8001c94:	f422 4260 	bic.w	r2, r2, #57344	@ 0xe000
 8001c98:	605a      	str	r2, [r3, #4]
 8001c9a:	685a      	ldr	r2, [r3, #4]
 8001c9c:	3901      	subs	r1, #1
 8001c9e:	ea42 3241 	orr.w	r2, r2, r1, lsl #13
 8001ca2:	605a      	str	r2, [r3, #4]
 8001ca4:	6ada      	ldr	r2, [r3, #44]	@ 0x2c
 8001ca6:	69e1      	ldr	r1, [r4, #28]
 8001ca8:	f422 0270 	bic.w	r2, r2, #15728640	@ 0xf00000
 8001cac:	62da      	str	r2, [r3, #44]	@ 0x2c
 8001cae:	6ada      	ldr	r2, [r3, #44]	@ 0x2c
 8001cb0:	3901      	subs	r1, #1
 8001cb2:	ea42 5201 	orr.w	r2, r2, r1, lsl #20
 8001cb6:	62da      	str	r2, [r3, #44]	@ 0x2c
 8001cb8:	689a      	ldr	r2, [r3, #8]
 8001cba:	6961      	ldr	r1, [r4, #20]
 8001cbc:	f422 7200 	bic.w	r2, r2, #512	@ 0x200
 8001cc0:	609a      	str	r2, [r3, #8]
 8001cc2:	689a      	ldr	r2, [r3, #8]
 8001cc4:	f894 0030 	ldrb.w	r0, [r4, #48]	@ 0x30
 8001cc8:	ea42 2240 	orr.w	r2, r2, r0, lsl #9
 8001ccc:	609a      	str	r2, [r3, #8]
 8001cce:	689a      	ldr	r2, [r3, #8]
 8001cd0:	f422 6280 	bic.w	r2, r2, #1024	@ 0x400
 8001cd4:	609a      	str	r2, [r3, #8]
 8001cd6:	689a      	ldr	r2, [r3, #8]
 8001cd8:	2000      	movs	r0, #0
 8001cda:	ea42 2281 	orr.w	r2, r2, r1, lsl #10
 8001cde:	609a      	str	r2, [r3, #8]
 8001ce0:	6460      	str	r0, [r4, #68]	@ 0x44
 8001ce2:	6c23      	ldr	r3, [r4, #64]	@ 0x40
 8001ce4:	f023 0303 	bic.w	r3, r3, #3
 8001ce8:	f043 0301 	orr.w	r3, r3, #1
 8001cec:	6423      	str	r3, [r4, #64]	@ 0x40
 8001cee:	2300      	movs	r3, #0
 8001cf0:	f884 303c 	strb.w	r3, [r4, #60]	@ 0x3c
 8001cf4:	bd38      	pop	{r3, r4, r5, pc}
 8001cf6:	f022 6270 	bic.w	r2, r2, #251658240	@ 0xf000000
 8001cfa:	609a      	str	r2, [r3, #8]
 8001cfc:	689a      	ldr	r2, [r3, #8]
 8001cfe:	f022 5240 	bic.w	r2, r2, #805306368	@ 0x30000000
 8001d02:	609a      	str	r2, [r3, #8]
 8001d04:	e7b3      	b.n	8001c6e <HAL_ADC_Init+0xaa>
 8001d06:	2001      	movs	r0, #1
 8001d08:	4770      	bx	lr
 8001d0a:	685a      	ldr	r2, [r3, #4]
 8001d0c:	f422 6200 	bic.w	r2, r2, #2048	@ 0x800
 8001d10:	605a      	str	r2, [r3, #4]
 8001d12:	e7c7      	b.n	8001ca4 <HAL_ADC_Init+0xe0>
 8001d14:	40012300 	.word	0x40012300
 8001d18:	0f000001 	.word	0x0f000001

08001d1c <HAL_ADC_Start_DMA>:
 8001d1c:	b570      	push	{r4, r5, r6, lr}
 8001d1e:	4605      	mov	r5, r0
 8001d20:	f890 003c 	ldrb.w	r0, [r0, #60]	@ 0x3c
 8001d24:	b082      	sub	sp, #8
 8001d26:	2300      	movs	r3, #0
 8001d28:	2801      	cmp	r0, #1
 8001d2a:	9301      	str	r3, [sp, #4]
 8001d2c:	f000 808d 	beq.w	8001e4a <HAL_ADC_Start_DMA+0x12e>
 8001d30:	682e      	ldr	r6, [r5, #0]
 8001d32:	4613      	mov	r3, r2
 8001d34:	2201      	movs	r2, #1
 8001d36:	f885 203c 	strb.w	r2, [r5, #60]	@ 0x3c
 8001d3a:	68b2      	ldr	r2, [r6, #8]
 8001d3c:	07d4      	lsls	r4, r2, #31
 8001d3e:	d414      	bmi.n	8001d6a <HAL_ADC_Start_DMA+0x4e>
 8001d40:	68b2      	ldr	r2, [r6, #8]
 8001d42:	f042 0201 	orr.w	r2, r2, #1
 8001d46:	60b2      	str	r2, [r6, #8]
 8001d48:	4a43      	ldr	r2, [pc, #268]	@ (8001e58 <HAL_ADC_Start_DMA+0x13c>)
 8001d4a:	6810      	ldr	r0, [r2, #0]
 8001d4c:	4a43      	ldr	r2, [pc, #268]	@ (8001e5c <HAL_ADC_Start_DMA+0x140>)
 8001d4e:	fba2 2000 	umull	r2, r0, r2, r0
 8001d52:	0c80      	lsrs	r0, r0, #18
 8001d54:	eb00 0040 	add.w	r0, r0, r0, lsl #1
 8001d58:	9001      	str	r0, [sp, #4]
 8001d5a:	9a01      	ldr	r2, [sp, #4]
 8001d5c:	b12a      	cbz	r2, 8001d6a <HAL_ADC_Start_DMA+0x4e>
 8001d5e:	9c01      	ldr	r4, [sp, #4]
 8001d60:	3c01      	subs	r4, #1
 8001d62:	9401      	str	r4, [sp, #4]
 8001d64:	9801      	ldr	r0, [sp, #4]
 8001d66:	2800      	cmp	r0, #0
 8001d68:	d1f9      	bne.n	8001d5e <HAL_ADC_Start_DMA+0x42>
 8001d6a:	68b2      	ldr	r2, [r6, #8]
 8001d6c:	05d0      	lsls	r0, r2, #23
 8001d6e:	d503      	bpl.n	8001d78 <HAL_ADC_Start_DMA+0x5c>
 8001d70:	68b2      	ldr	r2, [r6, #8]
 8001d72:	f422 7280 	bic.w	r2, r2, #256	@ 0x100
 8001d76:	60b2      	str	r2, [r6, #8]
 8001d78:	68b2      	ldr	r2, [r6, #8]
 8001d7a:	07d2      	lsls	r2, r2, #31
 8001d7c:	d54d      	bpl.n	8001e1a <HAL_ADC_Start_DMA+0xfe>
 8001d7e:	6c28      	ldr	r0, [r5, #64]	@ 0x40
 8001d80:	f420 60e0 	bic.w	r0, r0, #1792	@ 0x700
 8001d84:	f020 0001 	bic.w	r0, r0, #1
 8001d88:	f440 7080 	orr.w	r0, r0, #256	@ 0x100
 8001d8c:	6428      	str	r0, [r5, #64]	@ 0x40
 8001d8e:	6872      	ldr	r2, [r6, #4]
 8001d90:	0554      	lsls	r4, r2, #21
 8001d92:	d505      	bpl.n	8001da0 <HAL_ADC_Start_DMA+0x84>
 8001d94:	6c2a      	ldr	r2, [r5, #64]	@ 0x40
 8001d96:	f422 5240 	bic.w	r2, r2, #12288	@ 0x3000
 8001d9a:	f442 5280 	orr.w	r2, r2, #4096	@ 0x1000
 8001d9e:	642a      	str	r2, [r5, #64]	@ 0x40
 8001da0:	6c2a      	ldr	r2, [r5, #64]	@ 0x40
 8001da2:	6ba8      	ldr	r0, [r5, #56]	@ 0x38
 8001da4:	f412 5280 	ands.w	r2, r2, #4096	@ 0x1000
 8001da8:	bf1c      	itt	ne
 8001daa:	6c6a      	ldrne	r2, [r5, #68]	@ 0x44
 8001dac:	f022 0206 	bicne.w	r2, r2, #6
 8001db0:	646a      	str	r2, [r5, #68]	@ 0x44
 8001db2:	2200      	movs	r2, #0
 8001db4:	f885 203c 	strb.w	r2, [r5, #60]	@ 0x3c
 8001db8:	460a      	mov	r2, r1
 8001dba:	4929      	ldr	r1, [pc, #164]	@ (8001e60 <HAL_ADC_Start_DMA+0x144>)
 8001dbc:	63c1      	str	r1, [r0, #60]	@ 0x3c
 8001dbe:	4929      	ldr	r1, [pc, #164]	@ (8001e64 <HAL_ADC_Start_DMA+0x148>)
 8001dc0:	6401      	str	r1, [r0, #64]	@ 0x40
 8001dc2:	4929      	ldr	r1, [pc, #164]	@ (8001e68 <HAL_ADC_Start_DMA+0x14c>)
 8001dc4:	64c1      	str	r1, [r0, #76]	@ 0x4c
 8001dc6:	f06f 0122 	mvn.w	r1, #34	@ 0x22
 8001dca:	6031      	str	r1, [r6, #0]
 8001dcc:	6871      	ldr	r1, [r6, #4]
 8001dce:	f041 6180 	orr.w	r1, r1, #67108864	@ 0x4000000
 8001dd2:	6071      	str	r1, [r6, #4]
 8001dd4:	68b1      	ldr	r1, [r6, #8]
 8001dd6:	f441 7180 	orr.w	r1, r1, #256	@ 0x100
 8001dda:	60b1      	str	r1, [r6, #8]
 8001ddc:	f106 014c 	add.w	r1, r6, #76	@ 0x4c
 8001de0:	f000 fb44 	bl	800246c <HAL_DMA_Start_IT>
 8001de4:	4b21      	ldr	r3, [pc, #132]	@ (8001e6c <HAL_ADC_Start_DMA+0x150>)
 8001de6:	685a      	ldr	r2, [r3, #4]
 8001de8:	06d0      	lsls	r0, r2, #27
 8001dea:	d121      	bne.n	8001e30 <HAL_ADC_Start_DMA+0x114>
 8001dec:	682a      	ldr	r2, [r5, #0]
 8001dee:	4920      	ldr	r1, [pc, #128]	@ (8001e70 <HAL_ADC_Start_DMA+0x154>)
 8001df0:	428a      	cmp	r2, r1
 8001df2:	d009      	beq.n	8001e08 <HAL_ADC_Start_DMA+0xec>
 8001df4:	f501 7180 	add.w	r1, r1, #256	@ 0x100
 8001df8:	428a      	cmp	r2, r1
 8001dfa:	d029      	beq.n	8001e50 <HAL_ADC_Start_DMA+0x134>
 8001dfc:	491d      	ldr	r1, [pc, #116]	@ (8001e74 <HAL_ADC_Start_DMA+0x158>)
 8001dfe:	428a      	cmp	r2, r1
 8001e00:	d113      	bne.n	8001e2a <HAL_ADC_Start_DMA+0x10e>
 8001e02:	685b      	ldr	r3, [r3, #4]
 8001e04:	06db      	lsls	r3, r3, #27
 8001e06:	d410      	bmi.n	8001e2a <HAL_ADC_Start_DMA+0x10e>
 8001e08:	6893      	ldr	r3, [r2, #8]
 8001e0a:	f013 5f40 	tst.w	r3, #805306368	@ 0x30000000
 8001e0e:	d10c      	bne.n	8001e2a <HAL_ADC_Start_DMA+0x10e>
 8001e10:	6893      	ldr	r3, [r2, #8]
 8001e12:	f043 4380 	orr.w	r3, r3, #1073741824	@ 0x40000000
 8001e16:	6093      	str	r3, [r2, #8]
 8001e18:	e007      	b.n	8001e2a <HAL_ADC_Start_DMA+0x10e>
 8001e1a:	6c2b      	ldr	r3, [r5, #64]	@ 0x40
 8001e1c:	f043 0310 	orr.w	r3, r3, #16
 8001e20:	642b      	str	r3, [r5, #64]	@ 0x40
 8001e22:	6c6b      	ldr	r3, [r5, #68]	@ 0x44
 8001e24:	f043 0301 	orr.w	r3, r3, #1
 8001e28:	646b      	str	r3, [r5, #68]	@ 0x44
 8001e2a:	2000      	movs	r0, #0
 8001e2c:	b002      	add	sp, #8
 8001e2e:	bd70      	pop	{r4, r5, r6, pc}
 8001e30:	4a0f      	ldr	r2, [pc, #60]	@ (8001e70 <HAL_ADC_Start_DMA+0x154>)
 8001e32:	682b      	ldr	r3, [r5, #0]
 8001e34:	4293      	cmp	r3, r2
 8001e36:	d1f8      	bne.n	8001e2a <HAL_ADC_Start_DMA+0x10e>
 8001e38:	689a      	ldr	r2, [r3, #8]
 8001e3a:	f012 5f40 	tst.w	r2, #805306368	@ 0x30000000
 8001e3e:	d1f4      	bne.n	8001e2a <HAL_ADC_Start_DMA+0x10e>
 8001e40:	689a      	ldr	r2, [r3, #8]
 8001e42:	f042 4280 	orr.w	r2, r2, #1073741824	@ 0x40000000
 8001e46:	609a      	str	r2, [r3, #8]
 8001e48:	e7ef      	b.n	8001e2a <HAL_ADC_Start_DMA+0x10e>
 8001e4a:	2002      	movs	r0, #2
 8001e4c:	b002      	add	sp, #8
 8001e4e:	bd70      	pop	{r4, r5, r6, pc}
 8001e50:	685b      	ldr	r3, [r3, #4]
 8001e52:	06d9      	lsls	r1, r3, #27
 8001e54:	d0d8      	beq.n	8001e08 <HAL_ADC_Start_DMA+0xec>
 8001e56:	e7e8      	b.n	8001e2a <HAL_ADC_Start_DMA+0x10e>
 8001e58:	20000008 	.word	0x20000008
 8001e5c:	431bde83 	.word	0x431bde83
 8001e60:	08001ea5 	.word	0x08001ea5
 8001e64:	08001e7d 	.word	0x08001e7d
 8001e68:	08001e8d 	.word	0x08001e8d
 8001e6c:	40012300 	.word	0x40012300
 8001e70:	40012000 	.word	0x40012000
 8001e74:	40012200 	.word	0x40012200

08001e78 <HAL_ADC_ConvHalfCpltCallback>:
 8001e78:	4770      	bx	lr
 8001e7a:	bf00      	nop

08001e7c <ADC_DMAHalfConvCplt>:
 8001e7c:	b508      	push	{r3, lr}
 8001e7e:	6b80      	ldr	r0, [r0, #56]	@ 0x38
 8001e80:	f7ff fffa 	bl	8001e78 <HAL_ADC_ConvHalfCpltCallback>
 8001e84:	bd08      	pop	{r3, pc}
 8001e86:	bf00      	nop

08001e88 <HAL_ADC_ErrorCallback>:
 8001e88:	4770      	bx	lr
 8001e8a:	bf00      	nop

08001e8c <ADC_DMAError>:
 8001e8c:	6b80      	ldr	r0, [r0, #56]	@ 0x38
 8001e8e:	b508      	push	{r3, lr}
 8001e90:	2340      	movs	r3, #64	@ 0x40
 8001e92:	6403      	str	r3, [r0, #64]	@ 0x40
 8001e94:	6c43      	ldr	r3, [r0, #68]	@ 0x44
 8001e96:	f043 0304 	orr.w	r3, r3, #4
 8001e9a:	6443      	str	r3, [r0, #68]	@ 0x44
 8001e9c:	f7ff fff4 	bl	8001e88 <HAL_ADC_ErrorCallback>
 8001ea0:	bd08      	pop	{r3, pc}
 8001ea2:	bf00      	nop

08001ea4 <ADC_DMAConvCplt>:
 8001ea4:	6b83      	ldr	r3, [r0, #56]	@ 0x38
 8001ea6:	6c1a      	ldr	r2, [r3, #64]	@ 0x40
 8001ea8:	f012 0f50 	tst.w	r2, #80	@ 0x50
 8001eac:	b510      	push	{r4, lr}
 8001eae:	6c1a      	ldr	r2, [r3, #64]	@ 0x40
 8001eb0:	d123      	bne.n	8001efa <ADC_DMAConvCplt+0x56>
 8001eb2:	f442 7200 	orr.w	r2, r2, #512	@ 0x200
 8001eb6:	6819      	ldr	r1, [r3, #0]
 8001eb8:	641a      	str	r2, [r3, #64]	@ 0x40
 8001eba:	688a      	ldr	r2, [r1, #8]
 8001ebc:	f012 5f40 	tst.w	r2, #805306368	@ 0x30000000
 8001ec0:	d117      	bne.n	8001ef2 <ADC_DMAConvCplt+0x4e>
 8001ec2:	7e1a      	ldrb	r2, [r3, #24]
 8001ec4:	b9aa      	cbnz	r2, 8001ef2 <ADC_DMAConvCplt+0x4e>
 8001ec6:	6aca      	ldr	r2, [r1, #44]	@ 0x2c
 8001ec8:	f412 0f70 	tst.w	r2, #15728640	@ 0xf00000
 8001ecc:	d002      	beq.n	8001ed4 <ADC_DMAConvCplt+0x30>
 8001ece:	688a      	ldr	r2, [r1, #8]
 8001ed0:	0550      	lsls	r0, r2, #21
 8001ed2:	d40e      	bmi.n	8001ef2 <ADC_DMAConvCplt+0x4e>
 8001ed4:	684a      	ldr	r2, [r1, #4]
 8001ed6:	f022 0220 	bic.w	r2, r2, #32
 8001eda:	604a      	str	r2, [r1, #4]
 8001edc:	6c1a      	ldr	r2, [r3, #64]	@ 0x40
 8001ede:	f422 7280 	bic.w	r2, r2, #256	@ 0x100
 8001ee2:	641a      	str	r2, [r3, #64]	@ 0x40
 8001ee4:	6c1a      	ldr	r2, [r3, #64]	@ 0x40
 8001ee6:	04d1      	lsls	r1, r2, #19
 8001ee8:	d403      	bmi.n	8001ef2 <ADC_DMAConvCplt+0x4e>
 8001eea:	6c1a      	ldr	r2, [r3, #64]	@ 0x40
 8001eec:	f042 0201 	orr.w	r2, r2, #1
 8001ef0:	641a      	str	r2, [r3, #64]	@ 0x40
 8001ef2:	4618      	mov	r0, r3
 8001ef4:	f7fe ff40 	bl	8000d78 <HAL_ADC_ConvCpltCallback>
 8001ef8:	bd10      	pop	{r4, pc}
 8001efa:	06d2      	lsls	r2, r2, #27
 8001efc:	d404      	bmi.n	8001f08 <ADC_DMAConvCplt+0x64>
 8001efe:	6b9b      	ldr	r3, [r3, #56]	@ 0x38
 8001f00:	e8bd 4010 	ldmia.w	sp!, {r4, lr}
 8001f04:	6cdb      	ldr	r3, [r3, #76]	@ 0x4c
 8001f06:	4718      	bx	r3
 8001f08:	4618      	mov	r0, r3
 8001f0a:	f7ff ffbd 	bl	8001e88 <HAL_ADC_ErrorCallback>
 8001f0e:	bd10      	pop	{r4, pc}

08001f10 <HAL_ADC_ConfigChannel>:
 8001f10:	b570      	push	{r4, r5, r6, lr}
 8001f12:	f890 303c 	ldrb.w	r3, [r0, #60]	@ 0x3c
 8001f16:	b082      	sub	sp, #8
 8001f18:	4602      	mov	r2, r0
 8001f1a:	2b01      	cmp	r3, #1
 8001f1c:	f04f 0000 	mov.w	r0, #0
 8001f20:	9001      	str	r0, [sp, #4]
 8001f22:	f000 8093 	beq.w	800204c <HAL_ADC_ConfigChannel+0x13c>
 8001f26:	2301      	movs	r3, #1
 8001f28:	f882 303c 	strb.w	r3, [r2, #60]	@ 0x3c
 8001f2c:	680d      	ldr	r5, [r1, #0]
 8001f2e:	6813      	ldr	r3, [r2, #0]
 8001f30:	688c      	ldr	r4, [r1, #8]
 8001f32:	2d09      	cmp	r5, #9
 8001f34:	b2a8      	uxth	r0, r5
 8001f36:	d828      	bhi.n	8001f8a <HAL_ADC_ConfigChannel+0x7a>
 8001f38:	691e      	ldr	r6, [r3, #16]
 8001f3a:	eb05 0e45 	add.w	lr, r5, r5, lsl #1
 8001f3e:	f04f 0c07 	mov.w	ip, #7
 8001f42:	fa0c fc0e 	lsl.w	ip, ip, lr
 8001f46:	ea26 060c 	bic.w	r6, r6, ip
 8001f4a:	611e      	str	r6, [r3, #16]
 8001f4c:	691e      	ldr	r6, [r3, #16]
 8001f4e:	fa04 f40e 	lsl.w	r4, r4, lr
 8001f52:	4334      	orrs	r4, r6
 8001f54:	611c      	str	r4, [r3, #16]
 8001f56:	684c      	ldr	r4, [r1, #4]
 8001f58:	2c06      	cmp	r4, #6
 8001f5a:	eb04 0184 	add.w	r1, r4, r4, lsl #2
 8001f5e:	d82a      	bhi.n	8001fb6 <HAL_ADC_ConfigChannel+0xa6>
 8001f60:	6b5c      	ldr	r4, [r3, #52]	@ 0x34
 8001f62:	3905      	subs	r1, #5
 8001f64:	f04f 0c1f 	mov.w	ip, #31
 8001f68:	4088      	lsls	r0, r1
 8001f6a:	fa0c f101 	lsl.w	r1, ip, r1
 8001f6e:	ea24 0101 	bic.w	r1, r4, r1
 8001f72:	6359      	str	r1, [r3, #52]	@ 0x34
 8001f74:	6b59      	ldr	r1, [r3, #52]	@ 0x34
 8001f76:	4308      	orrs	r0, r1
 8001f78:	6358      	str	r0, [r3, #52]	@ 0x34
 8001f7a:	4936      	ldr	r1, [pc, #216]	@ (8002054 <HAL_ADC_ConfigChannel+0x144>)
 8001f7c:	428b      	cmp	r3, r1
 8001f7e:	d02b      	beq.n	8001fd8 <HAL_ADC_ConfigChannel+0xc8>
 8001f80:	2000      	movs	r0, #0
 8001f82:	f882 003c 	strb.w	r0, [r2, #60]	@ 0x3c
 8001f86:	b002      	add	sp, #8
 8001f88:	bd70      	pop	{r4, r5, r6, pc}
 8001f8a:	eb00 0c40 	add.w	ip, r0, r0, lsl #1
 8001f8e:	68de      	ldr	r6, [r3, #12]
 8001f90:	f1ac 0c1e 	sub.w	ip, ip, #30
 8001f94:	f04f 0e07 	mov.w	lr, #7
 8001f98:	fa04 f40c 	lsl.w	r4, r4, ip
 8001f9c:	fa0e fc0c 	lsl.w	ip, lr, ip
 8001fa0:	ea26 060c 	bic.w	r6, r6, ip
 8001fa4:	60de      	str	r6, [r3, #12]
 8001fa6:	68de      	ldr	r6, [r3, #12]
 8001fa8:	4334      	orrs	r4, r6
 8001faa:	60dc      	str	r4, [r3, #12]
 8001fac:	684c      	ldr	r4, [r1, #4]
 8001fae:	2c06      	cmp	r4, #6
 8001fb0:	eb04 0184 	add.w	r1, r4, r4, lsl #2
 8001fb4:	d9d4      	bls.n	8001f60 <HAL_ADC_ConfigChannel+0x50>
 8001fb6:	2c0c      	cmp	r4, #12
 8001fb8:	d834      	bhi.n	8002024 <HAL_ADC_ConfigChannel+0x114>
 8001fba:	6b1c      	ldr	r4, [r3, #48]	@ 0x30
 8001fbc:	3923      	subs	r1, #35	@ 0x23
 8001fbe:	261f      	movs	r6, #31
 8001fc0:	4088      	lsls	r0, r1
 8001fc2:	fa06 f101 	lsl.w	r1, r6, r1
 8001fc6:	ea24 0101 	bic.w	r1, r4, r1
 8001fca:	6319      	str	r1, [r3, #48]	@ 0x30
 8001fcc:	6b19      	ldr	r1, [r3, #48]	@ 0x30
 8001fce:	4308      	orrs	r0, r1
 8001fd0:	4920      	ldr	r1, [pc, #128]	@ (8002054 <HAL_ADC_ConfigChannel+0x144>)
 8001fd2:	6318      	str	r0, [r3, #48]	@ 0x30
 8001fd4:	428b      	cmp	r3, r1
 8001fd6:	d1d3      	bne.n	8001f80 <HAL_ADC_ConfigChannel+0x70>
 8001fd8:	2d12      	cmp	r5, #18
 8001fda:	d030      	beq.n	800203e <HAL_ADC_ConfigChannel+0x12e>
 8001fdc:	f1a5 0310 	sub.w	r3, r5, #16
 8001fe0:	2b01      	cmp	r3, #1
 8001fe2:	d8cd      	bhi.n	8001f80 <HAL_ADC_ConfigChannel+0x70>
 8001fe4:	491c      	ldr	r1, [pc, #112]	@ (8002058 <HAL_ADC_ConfigChannel+0x148>)
 8001fe6:	684b      	ldr	r3, [r1, #4]
 8001fe8:	2d10      	cmp	r5, #16
 8001fea:	f443 0300 	orr.w	r3, r3, #8388608	@ 0x800000
 8001fee:	604b      	str	r3, [r1, #4]
 8001ff0:	d1c6      	bne.n	8001f80 <HAL_ADC_ConfigChannel+0x70>
 8001ff2:	4b1a      	ldr	r3, [pc, #104]	@ (800205c <HAL_ADC_ConfigChannel+0x14c>)
 8001ff4:	f101 7146 	add.w	r1, r1, #51904512	@ 0x3180000
 8001ff8:	681b      	ldr	r3, [r3, #0]
 8001ffa:	f501 312e 	add.w	r1, r1, #178176	@ 0x2b800
 8001ffe:	f201 3183 	addw	r1, r1, #899	@ 0x383
 8002002:	fba1 1303 	umull	r1, r3, r1, r3
 8002006:	0c9b      	lsrs	r3, r3, #18
 8002008:	eb03 0383 	add.w	r3, r3, r3, lsl #2
 800200c:	005b      	lsls	r3, r3, #1
 800200e:	9301      	str	r3, [sp, #4]
 8002010:	9b01      	ldr	r3, [sp, #4]
 8002012:	2b00      	cmp	r3, #0
 8002014:	d0b4      	beq.n	8001f80 <HAL_ADC_ConfigChannel+0x70>
 8002016:	9b01      	ldr	r3, [sp, #4]
 8002018:	3b01      	subs	r3, #1
 800201a:	9301      	str	r3, [sp, #4]
 800201c:	9b01      	ldr	r3, [sp, #4]
 800201e:	2b00      	cmp	r3, #0
 8002020:	d1f9      	bne.n	8002016 <HAL_ADC_ConfigChannel+0x106>
 8002022:	e7ad      	b.n	8001f80 <HAL_ADC_ConfigChannel+0x70>
 8002024:	6adc      	ldr	r4, [r3, #44]	@ 0x2c
 8002026:	3941      	subs	r1, #65	@ 0x41
 8002028:	261f      	movs	r6, #31
 800202a:	4088      	lsls	r0, r1
 800202c:	fa06 f101 	lsl.w	r1, r6, r1
 8002030:	ea24 0101 	bic.w	r1, r4, r1
 8002034:	62d9      	str	r1, [r3, #44]	@ 0x2c
 8002036:	6ad9      	ldr	r1, [r3, #44]	@ 0x2c
 8002038:	4308      	orrs	r0, r1
 800203a:	62d8      	str	r0, [r3, #44]	@ 0x2c
 800203c:	e79d      	b.n	8001f7a <HAL_ADC_ConfigChannel+0x6a>
 800203e:	f8d1 3304 	ldr.w	r3, [r1, #772]	@ 0x304
 8002042:	f443 0380 	orr.w	r3, r3, #4194304	@ 0x400000
 8002046:	f8c1 3304 	str.w	r3, [r1, #772]	@ 0x304
 800204a:	e799      	b.n	8001f80 <HAL_ADC_ConfigChannel+0x70>
 800204c:	2002      	movs	r0, #2
 800204e:	b002      	add	sp, #8
 8002050:	bd70      	pop	{r4, r5, r6, pc}
 8002052:	bf00      	nop
 8002054:	40012000 	.word	0x40012000
 8002058:	40012300 	.word	0x40012300
 800205c:	20000008 	.word	0x20000008

08002060 <HAL_NVIC_SetPriorityGrouping>:
 8002060:	4907      	ldr	r1, [pc, #28]	@ (8002080 <HAL_NVIC_SetPriorityGrouping+0x20>)
 8002062:	68ca      	ldr	r2, [r1, #12]
 8002064:	0203      	lsls	r3, r0, #8
 8002066:	f64f 00ff 	movw	r0, #63743	@ 0xf8ff
 800206a:	f403 63e0 	and.w	r3, r3, #1792	@ 0x700
 800206e:	4002      	ands	r2, r0
 8002070:	4313      	orrs	r3, r2
 8002072:	f043 63bf 	orr.w	r3, r3, #100139008	@ 0x5f80000
 8002076:	f443 3300 	orr.w	r3, r3, #131072	@ 0x20000
 800207a:	60cb      	str	r3, [r1, #12]
 800207c:	4770      	bx	lr
 800207e:	bf00      	nop
 8002080:	e000ed00 	.word	0xe000ed00

08002084 <HAL_NVIC_SetPriority>:
 8002084:	4b1b      	ldr	r3, [pc, #108]	@ (80020f4 <HAL_NVIC_SetPriority+0x70>)
 8002086:	68db      	ldr	r3, [r3, #12]
 8002088:	f3c3 2302 	ubfx	r3, r3, #8, #3
 800208c:	b500      	push	{lr}
 800208e:	f1c3 0e07 	rsb	lr, r3, #7
 8002092:	f1be 0f04 	cmp.w	lr, #4
 8002096:	f103 0c04 	add.w	ip, r3, #4
 800209a:	bf28      	it	cs
 800209c:	f04f 0e04 	movcs.w	lr, #4
 80020a0:	f1bc 0f06 	cmp.w	ip, #6
 80020a4:	d91c      	bls.n	80020e0 <HAL_NVIC_SetPriority+0x5c>
 80020a6:	f1a3 0c03 	sub.w	ip, r3, #3
 80020aa:	f04f 33ff 	mov.w	r3, #4294967295
 80020ae:	fa03 f30c 	lsl.w	r3, r3, ip
 80020b2:	ea22 0203 	bic.w	r2, r2, r3
 80020b6:	f04f 33ff 	mov.w	r3, #4294967295
 80020ba:	fa03 f30e 	lsl.w	r3, r3, lr
 80020be:	ea21 0303 	bic.w	r3, r1, r3
 80020c2:	fa03 f30c 	lsl.w	r3, r3, ip
 80020c6:	4313      	orrs	r3, r2
 80020c8:	011b      	lsls	r3, r3, #4
 80020ca:	2800      	cmp	r0, #0
 80020cc:	b2db      	uxtb	r3, r3
 80020ce:	db0a      	blt.n	80020e6 <HAL_NVIC_SetPriority+0x62>
 80020d0:	f100 4060 	add.w	r0, r0, #3758096384	@ 0xe0000000
 80020d4:	f500 4061 	add.w	r0, r0, #57600	@ 0xe100
 80020d8:	f880 3300 	strb.w	r3, [r0, #768]	@ 0x300
 80020dc:	f85d fb04 	ldr.w	pc, [sp], #4
 80020e0:	2200      	movs	r2, #0
 80020e2:	4694      	mov	ip, r2
 80020e4:	e7e7      	b.n	80020b6 <HAL_NVIC_SetPriority+0x32>
 80020e6:	4a04      	ldr	r2, [pc, #16]	@ (80020f8 <HAL_NVIC_SetPriority+0x74>)
 80020e8:	f000 000f 	and.w	r0, r0, #15
 80020ec:	4402      	add	r2, r0
 80020ee:	7613      	strb	r3, [r2, #24]
 80020f0:	f85d fb04 	ldr.w	pc, [sp], #4
 80020f4:	e000ed00 	.word	0xe000ed00
 80020f8:	e000ecfc 	.word	0xe000ecfc

080020fc <HAL_NVIC_EnableIRQ>:
 80020fc:	2800      	cmp	r0, #0
 80020fe:	db07      	blt.n	8002110 <HAL_NVIC_EnableIRQ+0x14>
 8002100:	4a04      	ldr	r2, [pc, #16]	@ (8002114 <HAL_NVIC_EnableIRQ+0x18>)
 8002102:	0941      	lsrs	r1, r0, #5
 8002104:	2301      	movs	r3, #1
 8002106:	f000 001f 	and.w	r0, r0, #31
 800210a:	4083      	lsls	r3, r0
 800210c:	f842 3021 	str.w	r3, [r2, r1, lsl #2]
 8002110:	4770      	bx	lr
 8002112:	bf00      	nop
 8002114:	e000e100 	.word	0xe000e100

08002118 <HAL_SYSTICK_Config>:
 8002118:	3801      	subs	r0, #1
 800211a:	f1b0 7f80 	cmp.w	r0, #16777216	@ 0x1000000
 800211e:	d301      	bcc.n	8002124 <HAL_SYSTICK_Config+0xc>
 8002120:	2001      	movs	r0, #1
 8002122:	4770      	bx	lr
 8002124:	b410      	push	{r4}
 8002126:	f04f 23e0 	mov.w	r3, #3758153728	@ 0xe000e000
 800212a:	4c07      	ldr	r4, [pc, #28]	@ (8002148 <HAL_SYSTICK_Config+0x30>)
 800212c:	6158      	str	r0, [r3, #20]
 800212e:	f04f 0cf0 	mov.w	ip, #240	@ 0xf0
 8002132:	f884 c023 	strb.w	ip, [r4, #35]	@ 0x23
 8002136:	2200      	movs	r2, #0
 8002138:	2107      	movs	r1, #7
 800213a:	4610      	mov	r0, r2
 800213c:	619a      	str	r2, [r3, #24]
 800213e:	f85d 4b04 	ldr.w	r4, [sp], #4
 8002142:	6119      	str	r1, [r3, #16]
 8002144:	4770      	bx	lr
 8002146:	bf00      	nop
 8002148:	e000ed00 	.word	0xe000ed00

0800214c <HAL_DAC_Init>:
 800214c:	b188      	cbz	r0, 8002172 <HAL_DAC_Init+0x26>
 800214e:	b510      	push	{r4, lr}
 8002150:	7903      	ldrb	r3, [r0, #4]
 8002152:	4604      	mov	r4, r0
 8002154:	f003 02ff 	and.w	r2, r3, #255	@ 0xff
 8002158:	b13b      	cbz	r3, 800216a <HAL_DAC_Init+0x1e>
 800215a:	2300      	movs	r3, #0
 800215c:	2102      	movs	r1, #2
 800215e:	2201      	movs	r2, #1
 8002160:	7121      	strb	r1, [r4, #4]
 8002162:	6123      	str	r3, [r4, #16]
 8002164:	7122      	strb	r2, [r4, #4]
 8002166:	4618      	mov	r0, r3
 8002168:	bd10      	pop	{r4, pc}
 800216a:	7142      	strb	r2, [r0, #5]
 800216c:	f7ff fbe2 	bl	8001934 <HAL_DAC_MspInit>
 8002170:	e7f3      	b.n	800215a <HAL_DAC_Init+0xe>
 8002172:	2001      	movs	r0, #1
 8002174:	4770      	bx	lr
 8002176:	bf00      	nop

08002178 <HAL_DAC_Start_DMA>:
 8002178:	b5f8      	push	{r3, r4, r5, r6, r7, lr}
 800217a:	9f06      	ldr	r7, [sp, #24]
 800217c:	2800      	cmp	r0, #0
 800217e:	d05e      	beq.n	800223e <HAL_DAC_Start_DMA+0xc6>
 8002180:	460e      	mov	r6, r1
 8002182:	4611      	mov	r1, r2
 8002184:	7942      	ldrb	r2, [r0, #5]
 8002186:	2a01      	cmp	r2, #1
 8002188:	4604      	mov	r4, r0
 800218a:	d060      	beq.n	800224e <HAL_DAC_Start_DMA+0xd6>
 800218c:	2201      	movs	r2, #1
 800218e:	7142      	strb	r2, [r0, #5]
 8002190:	6805      	ldr	r5, [r0, #0]
 8002192:	2202      	movs	r2, #2
 8002194:	7102      	strb	r2, [r0, #4]
 8002196:	682a      	ldr	r2, [r5, #0]
 8002198:	bb3e      	cbnz	r6, 80021ea <HAL_DAC_Start_DMA+0x72>
 800219a:	6880      	ldr	r0, [r0, #8]
 800219c:	f8df c0b4 	ldr.w	ip, [pc, #180]	@ 8002254 <HAL_DAC_Start_DMA+0xdc>
 80021a0:	f8c0 c03c 	str.w	ip, [r0, #60]	@ 0x3c
 80021a4:	f8df c0b0 	ldr.w	ip, [pc, #176]	@ 8002258 <HAL_DAC_Start_DMA+0xe0>
 80021a8:	f8c0 c040 	str.w	ip, [r0, #64]	@ 0x40
 80021ac:	f442 5280 	orr.w	r2, r2, #4096	@ 0x1000
 80021b0:	f8df c0a8 	ldr.w	ip, [pc, #168]	@ 800225c <HAL_DAC_Start_DMA+0xe4>
 80021b4:	f8c0 c04c 	str.w	ip, [r0, #76]	@ 0x4c
 80021b8:	602a      	str	r2, [r5, #0]
 80021ba:	2f00      	cmp	r7, #0
 80021bc:	d044      	beq.n	8002248 <HAL_DAC_Start_DMA+0xd0>
 80021be:	2f04      	cmp	r7, #4
 80021c0:	d137      	bne.n	8002232 <HAL_DAC_Start_DMA+0xba>
 80021c2:	f105 020c 	add.w	r2, r5, #12
 80021c6:	682f      	ldr	r7, [r5, #0]
 80021c8:	f447 5700 	orr.w	r7, r7, #8192	@ 0x2000
 80021cc:	602f      	str	r7, [r5, #0]
 80021ce:	f000 f94d 	bl	800246c <HAL_DMA_Start_IT>
 80021d2:	2300      	movs	r3, #0
 80021d4:	7163      	strb	r3, [r4, #5]
 80021d6:	bb38      	cbnz	r0, 8002228 <HAL_DAC_Start_DMA+0xb0>
 80021d8:	6822      	ldr	r2, [r4, #0]
 80021da:	f006 0110 	and.w	r1, r6, #16
 80021de:	6814      	ldr	r4, [r2, #0]
 80021e0:	2301      	movs	r3, #1
 80021e2:	408b      	lsls	r3, r1
 80021e4:	4323      	orrs	r3, r4
 80021e6:	6013      	str	r3, [r2, #0]
 80021e8:	bdf8      	pop	{r3, r4, r5, r6, r7, pc}
 80021ea:	68c0      	ldr	r0, [r0, #12]
 80021ec:	f8df c070 	ldr.w	ip, [pc, #112]	@ 8002260 <HAL_DAC_Start_DMA+0xe8>
 80021f0:	f8c0 c03c 	str.w	ip, [r0, #60]	@ 0x3c
 80021f4:	f8df c06c 	ldr.w	ip, [pc, #108]	@ 8002264 <HAL_DAC_Start_DMA+0xec>
 80021f8:	f8c0 c040 	str.w	ip, [r0, #64]	@ 0x40
 80021fc:	f042 5280 	orr.w	r2, r2, #268435456	@ 0x10000000
 8002200:	f8df c064 	ldr.w	ip, [pc, #100]	@ 8002268 <HAL_DAC_Start_DMA+0xf0>
 8002204:	f8c0 c04c 	str.w	ip, [r0, #76]	@ 0x4c
 8002208:	602a      	str	r2, [r5, #0]
 800220a:	b1d7      	cbz	r7, 8002242 <HAL_DAC_Start_DMA+0xca>
 800220c:	2f04      	cmp	r7, #4
 800220e:	d113      	bne.n	8002238 <HAL_DAC_Start_DMA+0xc0>
 8002210:	f105 0218 	add.w	r2, r5, #24
 8002214:	682f      	ldr	r7, [r5, #0]
 8002216:	f047 5700 	orr.w	r7, r7, #536870912	@ 0x20000000
 800221a:	602f      	str	r7, [r5, #0]
 800221c:	f000 f926 	bl	800246c <HAL_DMA_Start_IT>
 8002220:	2300      	movs	r3, #0
 8002222:	7163      	strb	r3, [r4, #5]
 8002224:	2800      	cmp	r0, #0
 8002226:	d0d7      	beq.n	80021d8 <HAL_DAC_Start_DMA+0x60>
 8002228:	6923      	ldr	r3, [r4, #16]
 800222a:	f043 0304 	orr.w	r3, r3, #4
 800222e:	6123      	str	r3, [r4, #16]
 8002230:	bdf8      	pop	{r3, r4, r5, r6, r7, pc}
 8002232:	f105 0210 	add.w	r2, r5, #16
 8002236:	e7c6      	b.n	80021c6 <HAL_DAC_Start_DMA+0x4e>
 8002238:	f105 021c 	add.w	r2, r5, #28
 800223c:	e7ea      	b.n	8002214 <HAL_DAC_Start_DMA+0x9c>
 800223e:	2001      	movs	r0, #1
 8002240:	bdf8      	pop	{r3, r4, r5, r6, r7, pc}
 8002242:	f105 0214 	add.w	r2, r5, #20
 8002246:	e7e5      	b.n	8002214 <HAL_DAC_Start_DMA+0x9c>
 8002248:	f105 0208 	add.w	r2, r5, #8
 800224c:	e7bb      	b.n	80021c6 <HAL_DAC_Start_DMA+0x4e>
 800224e:	2002      	movs	r0, #2
 8002250:	bdf8      	pop	{r3, r4, r5, r6, r7, pc}
 8002252:	bf00      	nop
 8002254:	08002271 	.word	0x08002271
 8002258:	08002285 	.word	0x08002285
 800225c:	08002295 	.word	0x08002295
 8002260:	0800230d 	.word	0x0800230d
 8002264:	0800231d 	.word	0x0800231d
 8002268:	08002329 	.word	0x08002329

0800226c <HAL_DAC_ConvCpltCallbackCh1>:
 800226c:	4770      	bx	lr
 800226e:	bf00      	nop

08002270 <DAC_DMAConvCpltCh1>:
 8002270:	b510      	push	{r4, lr}
 8002272:	6b84      	ldr	r4, [r0, #56]	@ 0x38
 8002274:	4620      	mov	r0, r4
 8002276:	f7ff fff9 	bl	800226c <HAL_DAC_ConvCpltCallbackCh1>
 800227a:	2301      	movs	r3, #1
 800227c:	7123      	strb	r3, [r4, #4]
 800227e:	bd10      	pop	{r4, pc}

08002280 <HAL_DAC_ConvHalfCpltCallbackCh1>:
 8002280:	4770      	bx	lr
 8002282:	bf00      	nop

08002284 <DAC_DMAHalfConvCpltCh1>:
 8002284:	b508      	push	{r3, lr}
 8002286:	6b80      	ldr	r0, [r0, #56]	@ 0x38
 8002288:	f7ff fffa 	bl	8002280 <HAL_DAC_ConvHalfCpltCallbackCh1>
 800228c:	bd08      	pop	{r3, pc}
 800228e:	bf00      	nop

08002290 <HAL_DAC_ErrorCallbackCh1>:
 8002290:	4770      	bx	lr
 8002292:	bf00      	nop

08002294 <DAC_DMAErrorCh1>:
 8002294:	b510      	push	{r4, lr}
 8002296:	6b84      	ldr	r4, [r0, #56]	@ 0x38
 8002298:	6923      	ldr	r3, [r4, #16]
 800229a:	f043 0304 	orr.w	r3, r3, #4
 800229e:	6123      	str	r3, [r4, #16]
 80022a0:	4620      	mov	r0, r4
 80022a2:	f7ff fff5 	bl	8002290 <HAL_DAC_ErrorCallbackCh1>
 80022a6:	2301      	movs	r3, #1
 80022a8:	7123      	strb	r3, [r4, #4]
 80022aa:	bd10      	pop	{r4, pc}

080022ac <HAL_DAC_ConfigChannel>:
 80022ac:	b320      	cbz	r0, 80022f8 <HAL_DAC_ConfigChannel+0x4c>
 80022ae:	b319      	cbz	r1, 80022f8 <HAL_DAC_ConfigChannel+0x4c>
 80022b0:	4603      	mov	r3, r0
 80022b2:	7940      	ldrb	r0, [r0, #5]
 80022b4:	2801      	cmp	r0, #1
 80022b6:	d021      	beq.n	80022fc <HAL_DAC_ConfigChannel+0x50>
 80022b8:	2002      	movs	r0, #2
 80022ba:	b430      	push	{r4, r5}
 80022bc:	7118      	strb	r0, [r3, #4]
 80022be:	e9d1 0100 	ldrd	r0, r1, [r1]
 80022c2:	681c      	ldr	r4, [r3, #0]
 80022c4:	f002 0210 	and.w	r2, r2, #16
 80022c8:	6825      	ldr	r5, [r4, #0]
 80022ca:	4301      	orrs	r1, r0
 80022cc:	f640 70fe 	movw	r0, #4094	@ 0xffe
 80022d0:	4090      	lsls	r0, r2
 80022d2:	ea25 0000 	bic.w	r0, r5, r0
 80022d6:	4091      	lsls	r1, r2
 80022d8:	4301      	orrs	r1, r0
 80022da:	6021      	str	r1, [r4, #0]
 80022dc:	6821      	ldr	r1, [r4, #0]
 80022de:	20c0      	movs	r0, #192	@ 0xc0
 80022e0:	fa00 f202 	lsl.w	r2, r0, r2
 80022e4:	2500      	movs	r5, #0
 80022e6:	ea21 0202 	bic.w	r2, r1, r2
 80022ea:	2101      	movs	r1, #1
 80022ec:	6022      	str	r2, [r4, #0]
 80022ee:	7119      	strb	r1, [r3, #4]
 80022f0:	715d      	strb	r5, [r3, #5]
 80022f2:	4628      	mov	r0, r5
 80022f4:	bc30      	pop	{r4, r5}
 80022f6:	4770      	bx	lr
 80022f8:	2001      	movs	r0, #1
 80022fa:	4770      	bx	lr
 80022fc:	2002      	movs	r0, #2
 80022fe:	4770      	bx	lr

08002300 <HAL_DACEx_ConvCpltCallbackCh2>:
 8002300:	4770      	bx	lr
 8002302:	bf00      	nop

08002304 <HAL_DACEx_ConvHalfCpltCallbackCh2>:
 8002304:	4770      	bx	lr
 8002306:	bf00      	nop

08002308 <HAL_DACEx_ErrorCallbackCh2>:
 8002308:	4770      	bx	lr
 800230a:	bf00      	nop

0800230c <DAC_DMAConvCpltCh2>:
 800230c:	b510      	push	{r4, lr}
 800230e:	6b84      	ldr	r4, [r0, #56]	@ 0x38
 8002310:	4620      	mov	r0, r4
 8002312:	f7ff fff5 	bl	8002300 <HAL_DACEx_ConvCpltCallbackCh2>
 8002316:	2301      	movs	r3, #1
 8002318:	7123      	strb	r3, [r4, #4]
 800231a:	bd10      	pop	{r4, pc}

0800231c <DAC_DMAHalfConvCpltCh2>:
 800231c:	b508      	push	{r3, lr}
 800231e:	6b80      	ldr	r0, [r0, #56]	@ 0x38
 8002320:	f7ff fff0 	bl	8002304 <HAL_DACEx_ConvHalfCpltCallbackCh2>
 8002324:	bd08      	pop	{r3, pc}
 8002326:	bf00      	nop

08002328 <DAC_DMAErrorCh2>:
 8002328:	b510      	push	{r4, lr}
 800232a:	6b84      	ldr	r4, [r0, #56]	@ 0x38
 800232c:	6923      	ldr	r3, [r4, #16]
 800232e:	f043 0304 	orr.w	r3, r3, #4
 8002332:	6123      	str	r3, [r4, #16]
 8002334:	4620      	mov	r0, r4
 8002336:	f7ff ffe7 	bl	8002308 <HAL_DACEx_ErrorCallbackCh2>
 800233a:	2301      	movs	r3, #1
 800233c:	7123      	strb	r3, [r4, #4]
 800233e:	bd10      	pop	{r4, pc}

08002340 <HAL_DMA_Init>:
 8002340:	b538      	push	{r3, r4, r5, lr}
 8002342:	4604      	mov	r4, r0
 8002344:	f7ff fc38 	bl	8001bb8 <HAL_GetTick>
 8002348:	2c00      	cmp	r4, #0
 800234a:	d06f      	beq.n	800242c <HAL_DMA_Init+0xec>
 800234c:	6823      	ldr	r3, [r4, #0]
 800234e:	2200      	movs	r2, #0
 8002350:	2102      	movs	r1, #2
 8002352:	f884 1035 	strb.w	r1, [r4, #53]	@ 0x35
 8002356:	f884 2034 	strb.w	r2, [r4, #52]	@ 0x34
 800235a:	681a      	ldr	r2, [r3, #0]
 800235c:	f022 0201 	bic.w	r2, r2, #1
 8002360:	4605      	mov	r5, r0
 8002362:	601a      	str	r2, [r3, #0]
 8002364:	e005      	b.n	8002372 <HAL_DMA_Init+0x32>
 8002366:	f7ff fc27 	bl	8001bb8 <HAL_GetTick>
 800236a:	1b43      	subs	r3, r0, r5
 800236c:	2b05      	cmp	r3, #5
 800236e:	d839      	bhi.n	80023e4 <HAL_DMA_Init+0xa4>
 8002370:	6823      	ldr	r3, [r4, #0]
 8002372:	681a      	ldr	r2, [r3, #0]
 8002374:	07d1      	lsls	r1, r2, #31
 8002376:	d4f6      	bmi.n	8002366 <HAL_DMA_Init+0x26>
 8002378:	e9d4 2001 	ldrd	r2, r0, [r4, #4]
 800237c:	68e1      	ldr	r1, [r4, #12]
 800237e:	4302      	orrs	r2, r0
 8002380:	430a      	orrs	r2, r1
 8002382:	e9d4 5104 	ldrd	r5, r1, [r4, #16]
 8002386:	69a0      	ldr	r0, [r4, #24]
 8002388:	432a      	orrs	r2, r5
 800238a:	430a      	orrs	r2, r1
 800238c:	69e1      	ldr	r1, [r4, #28]
 800238e:	681d      	ldr	r5, [r3, #0]
 8002390:	4302      	orrs	r2, r0
 8002392:	430a      	orrs	r2, r1
 8002394:	4932      	ldr	r1, [pc, #200]	@ (8002460 <HAL_DMA_Init+0x120>)
 8002396:	4029      	ands	r1, r5
 8002398:	6a25      	ldr	r5, [r4, #32]
 800239a:	432a      	orrs	r2, r5
 800239c:	430a      	orrs	r2, r1
 800239e:	6a61      	ldr	r1, [r4, #36]	@ 0x24
 80023a0:	2904      	cmp	r1, #4
 80023a2:	d026      	beq.n	80023f2 <HAL_DMA_Init+0xb2>
 80023a4:	601a      	str	r2, [r3, #0]
 80023a6:	695a      	ldr	r2, [r3, #20]
 80023a8:	f022 0207 	bic.w	r2, r2, #7
 80023ac:	4311      	orrs	r1, r2
 80023ae:	b2d8      	uxtb	r0, r3
 80023b0:	4a2c      	ldr	r2, [pc, #176]	@ (8002464 <HAL_DMA_Init+0x124>)
 80023b2:	6159      	str	r1, [r3, #20]
 80023b4:	3810      	subs	r0, #16
 80023b6:	fba2 5200 	umull	r5, r2, r2, r0
 80023ba:	0912      	lsrs	r2, r2, #4
 80023bc:	492a      	ldr	r1, [pc, #168]	@ (8002468 <HAL_DMA_Init+0x128>)
 80023be:	f423 737f 	bic.w	r3, r3, #1020	@ 0x3fc
 80023c2:	5c89      	ldrb	r1, [r1, r2]
 80023c4:	65e1      	str	r1, [r4, #92]	@ 0x5c
 80023c6:	f023 0303 	bic.w	r3, r3, #3
 80023ca:	285f      	cmp	r0, #95	@ 0x5f
 80023cc:	bf88      	it	hi
 80023ce:	3304      	addhi	r3, #4
 80023d0:	223f      	movs	r2, #63	@ 0x3f
 80023d2:	408a      	lsls	r2, r1
 80023d4:	65a3      	str	r3, [r4, #88]	@ 0x58
 80023d6:	2000      	movs	r0, #0
 80023d8:	609a      	str	r2, [r3, #8]
 80023da:	2301      	movs	r3, #1
 80023dc:	6560      	str	r0, [r4, #84]	@ 0x54
 80023de:	f884 3035 	strb.w	r3, [r4, #53]	@ 0x35
 80023e2:	bd38      	pop	{r3, r4, r5, pc}
 80023e4:	2303      	movs	r3, #3
 80023e6:	2220      	movs	r2, #32
 80023e8:	6562      	str	r2, [r4, #84]	@ 0x54
 80023ea:	f884 3035 	strb.w	r3, [r4, #53]	@ 0x35
 80023ee:	4618      	mov	r0, r3
 80023f0:	bd38      	pop	{r3, r4, r5, pc}
 80023f2:	e9d4 510b 	ldrd	r5, r1, [r4, #44]	@ 0x2c
 80023f6:	4329      	orrs	r1, r5
 80023f8:	4311      	orrs	r1, r2
 80023fa:	6019      	str	r1, [r3, #0]
 80023fc:	6959      	ldr	r1, [r3, #20]
 80023fe:	6aa2      	ldr	r2, [r4, #40]	@ 0x28
 8002400:	f021 0107 	bic.w	r1, r1, #7
 8002404:	4311      	orrs	r1, r2
 8002406:	f041 0104 	orr.w	r1, r1, #4
 800240a:	2d00      	cmp	r5, #0
 800240c:	d0cf      	beq.n	80023ae <HAL_DMA_Init+0x6e>
 800240e:	b178      	cbz	r0, 8002430 <HAL_DMA_Init+0xf0>
 8002410:	f5b0 5f00 	cmp.w	r0, #8192	@ 0x2000
 8002414:	d016      	beq.n	8002444 <HAL_DMA_Init+0x104>
 8002416:	2a02      	cmp	r2, #2
 8002418:	d903      	bls.n	8002422 <HAL_DMA_Init+0xe2>
 800241a:	2a03      	cmp	r2, #3
 800241c:	d1c7      	bne.n	80023ae <HAL_DMA_Init+0x6e>
 800241e:	01ea      	lsls	r2, r5, #7
 8002420:	d5c5      	bpl.n	80023ae <HAL_DMA_Init+0x6e>
 8002422:	2240      	movs	r2, #64	@ 0x40
 8002424:	2301      	movs	r3, #1
 8002426:	6562      	str	r2, [r4, #84]	@ 0x54
 8002428:	f884 3035 	strb.w	r3, [r4, #53]	@ 0x35
 800242c:	2001      	movs	r0, #1
 800242e:	bd38      	pop	{r3, r4, r5, pc}
 8002430:	2a01      	cmp	r2, #1
 8002432:	d003      	beq.n	800243c <HAL_DMA_Init+0xfc>
 8002434:	f032 0202 	bics.w	r2, r2, #2
 8002438:	d1b9      	bne.n	80023ae <HAL_DMA_Init+0x6e>
 800243a:	e7f0      	b.n	800241e <HAL_DMA_Init+0xde>
 800243c:	f1b5 7fc0 	cmp.w	r5, #25165824	@ 0x1800000
 8002440:	d1b5      	bne.n	80023ae <HAL_DMA_Init+0x6e>
 8002442:	e7ee      	b.n	8002422 <HAL_DMA_Init+0xe2>
 8002444:	2a03      	cmp	r2, #3
 8002446:	d8b2      	bhi.n	80023ae <HAL_DMA_Init+0x6e>
 8002448:	a001      	add	r0, pc, #4	@ (adr r0, 8002450 <HAL_DMA_Init+0x110>)
 800244a:	f850 f022 	ldr.w	pc, [r0, r2, lsl #2]
 800244e:	bf00      	nop
 8002450:	08002423 	.word	0x08002423
 8002454:	0800241f 	.word	0x0800241f
 8002458:	08002423 	.word	0x08002423
 800245c:	0800243d 	.word	0x0800243d
 8002460:	f010803f 	.word	0xf010803f
 8002464:	aaaaaaab 	.word	0xaaaaaaab
 8002468:	080059b8 	.word	0x080059b8

0800246c <HAL_DMA_Start_IT>:
 800246c:	b470      	push	{r4, r5, r6}
 800246e:	f890 4034 	ldrb.w	r4, [r0, #52]	@ 0x34
 8002472:	6d85      	ldr	r5, [r0, #88]	@ 0x58
 8002474:	2c01      	cmp	r4, #1
 8002476:	d00a      	beq.n	800248e <HAL_DMA_Start_IT+0x22>
 8002478:	f890 4035 	ldrb.w	r4, [r0, #53]	@ 0x35
 800247c:	f04f 0c01 	mov.w	ip, #1
 8002480:	4564      	cmp	r4, ip
 8002482:	f880 c034 	strb.w	ip, [r0, #52]	@ 0x34
 8002486:	d005      	beq.n	8002494 <HAL_DMA_Start_IT+0x28>
 8002488:	2300      	movs	r3, #0
 800248a:	f880 3034 	strb.w	r3, [r0, #52]	@ 0x34
 800248e:	2002      	movs	r0, #2
 8002490:	bc70      	pop	{r4, r5, r6}
 8002492:	4770      	bx	lr
 8002494:	2602      	movs	r6, #2
 8002496:	f880 6035 	strb.w	r6, [r0, #53]	@ 0x35
 800249a:	6804      	ldr	r4, [r0, #0]
 800249c:	2600      	movs	r6, #0
 800249e:	6546      	str	r6, [r0, #84]	@ 0x54
 80024a0:	6826      	ldr	r6, [r4, #0]
 80024a2:	f426 2680 	bic.w	r6, r6, #262144	@ 0x40000
 80024a6:	6026      	str	r6, [r4, #0]
 80024a8:	6063      	str	r3, [r4, #4]
 80024aa:	6883      	ldr	r3, [r0, #8]
 80024ac:	2b40      	cmp	r3, #64	@ 0x40
 80024ae:	bf0e      	itee	eq
 80024b0:	60a2      	streq	r2, [r4, #8]
 80024b2:	60a1      	strne	r1, [r4, #8]
 80024b4:	60e2      	strne	r2, [r4, #12]
 80024b6:	6dc2      	ldr	r2, [r0, #92]	@ 0x5c
 80024b8:	bf08      	it	eq
 80024ba:	60e1      	streq	r1, [r4, #12]
 80024bc:	233f      	movs	r3, #63	@ 0x3f
 80024be:	4093      	lsls	r3, r2
 80024c0:	60ab      	str	r3, [r5, #8]
 80024c2:	6823      	ldr	r3, [r4, #0]
 80024c4:	6c02      	ldr	r2, [r0, #64]	@ 0x40
 80024c6:	f043 0316 	orr.w	r3, r3, #22
 80024ca:	6023      	str	r3, [r4, #0]
 80024cc:	b11a      	cbz	r2, 80024d6 <HAL_DMA_Start_IT+0x6a>
 80024ce:	6823      	ldr	r3, [r4, #0]
 80024d0:	f043 0308 	orr.w	r3, r3, #8
 80024d4:	6023      	str	r3, [r4, #0]
 80024d6:	6823      	ldr	r3, [r4, #0]
 80024d8:	f043 0301 	orr.w	r3, r3, #1
 80024dc:	2000      	movs	r0, #0
 80024de:	6023      	str	r3, [r4, #0]
 80024e0:	bc70      	pop	{r4, r5, r6}
 80024e2:	4770      	bx	lr

080024e4 <HAL_DMA_IRQHandler>:
 80024e4:	b5f0      	push	{r4, r5, r6, r7, lr}
 80024e6:	b083      	sub	sp, #12
 80024e8:	4a67      	ldr	r2, [pc, #412]	@ (8002688 <HAL_DMA_IRQHandler+0x1a4>)
 80024ea:	6d87      	ldr	r7, [r0, #88]	@ 0x58
 80024ec:	6816      	ldr	r6, [r2, #0]
 80024ee:	2300      	movs	r3, #0
 80024f0:	9301      	str	r3, [sp, #4]
 80024f2:	6dc3      	ldr	r3, [r0, #92]	@ 0x5c
 80024f4:	683d      	ldr	r5, [r7, #0]
 80024f6:	2208      	movs	r2, #8
 80024f8:	409a      	lsls	r2, r3
 80024fa:	422a      	tst	r2, r5
 80024fc:	4604      	mov	r4, r0
 80024fe:	d003      	beq.n	8002508 <HAL_DMA_IRQHandler+0x24>
 8002500:	6801      	ldr	r1, [r0, #0]
 8002502:	6808      	ldr	r0, [r1, #0]
 8002504:	0740      	lsls	r0, r0, #29
 8002506:	d478      	bmi.n	80025fa <HAL_DMA_IRQHandler+0x116>
 8002508:	2201      	movs	r2, #1
 800250a:	409a      	lsls	r2, r3
 800250c:	422a      	tst	r2, r5
 800250e:	d003      	beq.n	8002518 <HAL_DMA_IRQHandler+0x34>
 8002510:	6821      	ldr	r1, [r4, #0]
 8002512:	6949      	ldr	r1, [r1, #20]
 8002514:	0608      	lsls	r0, r1, #24
 8002516:	d46a      	bmi.n	80025ee <HAL_DMA_IRQHandler+0x10a>
 8002518:	2204      	movs	r2, #4
 800251a:	409a      	lsls	r2, r3
 800251c:	422a      	tst	r2, r5
 800251e:	d003      	beq.n	8002528 <HAL_DMA_IRQHandler+0x44>
 8002520:	6821      	ldr	r1, [r4, #0]
 8002522:	6809      	ldr	r1, [r1, #0]
 8002524:	0789      	lsls	r1, r1, #30
 8002526:	d45c      	bmi.n	80025e2 <HAL_DMA_IRQHandler+0xfe>
 8002528:	2210      	movs	r2, #16
 800252a:	409a      	lsls	r2, r3
 800252c:	422a      	tst	r2, r5
 800252e:	d003      	beq.n	8002538 <HAL_DMA_IRQHandler+0x54>
 8002530:	6821      	ldr	r1, [r4, #0]
 8002532:	6808      	ldr	r0, [r1, #0]
 8002534:	0700      	lsls	r0, r0, #28
 8002536:	d441      	bmi.n	80025bc <HAL_DMA_IRQHandler+0xd8>
 8002538:	2220      	movs	r2, #32
 800253a:	409a      	lsls	r2, r3
 800253c:	422a      	tst	r2, r5
 800253e:	d014      	beq.n	800256a <HAL_DMA_IRQHandler+0x86>
 8002540:	6821      	ldr	r1, [r4, #0]
 8002542:	6808      	ldr	r0, [r1, #0]
 8002544:	06c0      	lsls	r0, r0, #27
 8002546:	d510      	bpl.n	800256a <HAL_DMA_IRQHandler+0x86>
 8002548:	60ba      	str	r2, [r7, #8]
 800254a:	f894 2035 	ldrb.w	r2, [r4, #53]	@ 0x35
 800254e:	2a05      	cmp	r2, #5
 8002550:	d063      	beq.n	800261a <HAL_DMA_IRQHandler+0x136>
 8002552:	680b      	ldr	r3, [r1, #0]
 8002554:	f413 2f80 	tst.w	r3, #262144	@ 0x40000
 8002558:	680b      	ldr	r3, [r1, #0]
 800255a:	d07e      	beq.n	800265a <HAL_DMA_IRQHandler+0x176>
 800255c:	0319      	lsls	r1, r3, #12
 800255e:	f140 8089 	bpl.w	8002674 <HAL_DMA_IRQHandler+0x190>
 8002562:	6be3      	ldr	r3, [r4, #60]	@ 0x3c
 8002564:	b10b      	cbz	r3, 800256a <HAL_DMA_IRQHandler+0x86>
 8002566:	4620      	mov	r0, r4
 8002568:	4798      	blx	r3
 800256a:	6d63      	ldr	r3, [r4, #84]	@ 0x54
 800256c:	b323      	cbz	r3, 80025b8 <HAL_DMA_IRQHandler+0xd4>
 800256e:	6d63      	ldr	r3, [r4, #84]	@ 0x54
 8002570:	07da      	lsls	r2, r3, #31
 8002572:	d51a      	bpl.n	80025aa <HAL_DMA_IRQHandler+0xc6>
 8002574:	6822      	ldr	r2, [r4, #0]
 8002576:	4945      	ldr	r1, [pc, #276]	@ (800268c <HAL_DMA_IRQHandler+0x1a8>)
 8002578:	2305      	movs	r3, #5
 800257a:	f884 3035 	strb.w	r3, [r4, #53]	@ 0x35
 800257e:	6813      	ldr	r3, [r2, #0]
 8002580:	fba1 1606 	umull	r1, r6, r1, r6
 8002584:	f023 0301 	bic.w	r3, r3, #1
 8002588:	0ab6      	lsrs	r6, r6, #10
 800258a:	6013      	str	r3, [r2, #0]
 800258c:	e002      	b.n	8002594 <HAL_DMA_IRQHandler+0xb0>
 800258e:	6813      	ldr	r3, [r2, #0]
 8002590:	07db      	lsls	r3, r3, #31
 8002592:	d504      	bpl.n	800259e <HAL_DMA_IRQHandler+0xba>
 8002594:	9b01      	ldr	r3, [sp, #4]
 8002596:	3301      	adds	r3, #1
 8002598:	42b3      	cmp	r3, r6
 800259a:	9301      	str	r3, [sp, #4]
 800259c:	d9f7      	bls.n	800258e <HAL_DMA_IRQHandler+0xaa>
 800259e:	2201      	movs	r2, #1
 80025a0:	2300      	movs	r3, #0
 80025a2:	f884 2035 	strb.w	r2, [r4, #53]	@ 0x35
 80025a6:	f884 3034 	strb.w	r3, [r4, #52]	@ 0x34
 80025aa:	6ce3      	ldr	r3, [r4, #76]	@ 0x4c
 80025ac:	b123      	cbz	r3, 80025b8 <HAL_DMA_IRQHandler+0xd4>
 80025ae:	4620      	mov	r0, r4
 80025b0:	b003      	add	sp, #12
 80025b2:	e8bd 40f0 	ldmia.w	sp!, {r4, r5, r6, r7, lr}
 80025b6:	4718      	bx	r3
 80025b8:	b003      	add	sp, #12
 80025ba:	bdf0      	pop	{r4, r5, r6, r7, pc}
 80025bc:	60ba      	str	r2, [r7, #8]
 80025be:	680a      	ldr	r2, [r1, #0]
 80025c0:	f412 2f80 	tst.w	r2, #262144	@ 0x40000
 80025c4:	680a      	ldr	r2, [r1, #0]
 80025c6:	d122      	bne.n	800260e <HAL_DMA_IRQHandler+0x12a>
 80025c8:	05d2      	lsls	r2, r2, #23
 80025ca:	d403      	bmi.n	80025d4 <HAL_DMA_IRQHandler+0xf0>
 80025cc:	680a      	ldr	r2, [r1, #0]
 80025ce:	f022 0208 	bic.w	r2, r2, #8
 80025d2:	600a      	str	r2, [r1, #0]
 80025d4:	6c22      	ldr	r2, [r4, #64]	@ 0x40
 80025d6:	2a00      	cmp	r2, #0
 80025d8:	d0ae      	beq.n	8002538 <HAL_DMA_IRQHandler+0x54>
 80025da:	4620      	mov	r0, r4
 80025dc:	4790      	blx	r2
 80025de:	6de3      	ldr	r3, [r4, #92]	@ 0x5c
 80025e0:	e7aa      	b.n	8002538 <HAL_DMA_IRQHandler+0x54>
 80025e2:	60ba      	str	r2, [r7, #8]
 80025e4:	6d62      	ldr	r2, [r4, #84]	@ 0x54
 80025e6:	f042 0204 	orr.w	r2, r2, #4
 80025ea:	6562      	str	r2, [r4, #84]	@ 0x54
 80025ec:	e79c      	b.n	8002528 <HAL_DMA_IRQHandler+0x44>
 80025ee:	60ba      	str	r2, [r7, #8]
 80025f0:	6d62      	ldr	r2, [r4, #84]	@ 0x54
 80025f2:	f042 0202 	orr.w	r2, r2, #2
 80025f6:	6562      	str	r2, [r4, #84]	@ 0x54
 80025f8:	e78e      	b.n	8002518 <HAL_DMA_IRQHandler+0x34>
 80025fa:	6808      	ldr	r0, [r1, #0]
 80025fc:	f020 0004 	bic.w	r0, r0, #4
 8002600:	6008      	str	r0, [r1, #0]
 8002602:	60ba      	str	r2, [r7, #8]
 8002604:	6d62      	ldr	r2, [r4, #84]	@ 0x54
 8002606:	f042 0201 	orr.w	r2, r2, #1
 800260a:	6562      	str	r2, [r4, #84]	@ 0x54
 800260c:	e77c      	b.n	8002508 <HAL_DMA_IRQHandler+0x24>
 800260e:	0311      	lsls	r1, r2, #12
 8002610:	d5e0      	bpl.n	80025d4 <HAL_DMA_IRQHandler+0xf0>
 8002612:	6ca2      	ldr	r2, [r4, #72]	@ 0x48
 8002614:	2a00      	cmp	r2, #0
 8002616:	d1e0      	bne.n	80025da <HAL_DMA_IRQHandler+0xf6>
 8002618:	e78e      	b.n	8002538 <HAL_DMA_IRQHandler+0x54>
 800261a:	680a      	ldr	r2, [r1, #0]
 800261c:	f022 0216 	bic.w	r2, r2, #22
 8002620:	600a      	str	r2, [r1, #0]
 8002622:	694a      	ldr	r2, [r1, #20]
 8002624:	f022 0280 	bic.w	r2, r2, #128	@ 0x80
 8002628:	614a      	str	r2, [r1, #20]
 800262a:	6c22      	ldr	r2, [r4, #64]	@ 0x40
 800262c:	b33a      	cbz	r2, 800267e <HAL_DMA_IRQHandler+0x19a>
 800262e:	680a      	ldr	r2, [r1, #0]
 8002630:	f022 0208 	bic.w	r2, r2, #8
 8002634:	600a      	str	r2, [r1, #0]
 8002636:	223f      	movs	r2, #63	@ 0x3f
 8002638:	fa02 f303 	lsl.w	r3, r2, r3
 800263c:	6d21      	ldr	r1, [r4, #80]	@ 0x50
 800263e:	60bb      	str	r3, [r7, #8]
 8002640:	2201      	movs	r2, #1
 8002642:	2300      	movs	r3, #0
 8002644:	f884 2035 	strb.w	r2, [r4, #53]	@ 0x35
 8002648:	f884 3034 	strb.w	r3, [r4, #52]	@ 0x34
 800264c:	2900      	cmp	r1, #0
 800264e:	d0b3      	beq.n	80025b8 <HAL_DMA_IRQHandler+0xd4>
 8002650:	4620      	mov	r0, r4
 8002652:	b003      	add	sp, #12
 8002654:	e8bd 40f0 	ldmia.w	sp!, {r4, r5, r6, r7, lr}
 8002658:	4708      	bx	r1
 800265a:	f413 7380 	ands.w	r3, r3, #256	@ 0x100
 800265e:	d180      	bne.n	8002562 <HAL_DMA_IRQHandler+0x7e>
 8002660:	680a      	ldr	r2, [r1, #0]
 8002662:	f022 0210 	bic.w	r2, r2, #16
 8002666:	600a      	str	r2, [r1, #0]
 8002668:	2201      	movs	r2, #1
 800266a:	f884 2035 	strb.w	r2, [r4, #53]	@ 0x35
 800266e:	f884 3034 	strb.w	r3, [r4, #52]	@ 0x34
 8002672:	e776      	b.n	8002562 <HAL_DMA_IRQHandler+0x7e>
 8002674:	6c63      	ldr	r3, [r4, #68]	@ 0x44
 8002676:	2b00      	cmp	r3, #0
 8002678:	f47f af75 	bne.w	8002566 <HAL_DMA_IRQHandler+0x82>
 800267c:	e775      	b.n	800256a <HAL_DMA_IRQHandler+0x86>
 800267e:	6ca2      	ldr	r2, [r4, #72]	@ 0x48
 8002680:	2a00      	cmp	r2, #0
 8002682:	d1d4      	bne.n	800262e <HAL_DMA_IRQHandler+0x14a>
 8002684:	e7d7      	b.n	8002636 <HAL_DMA_IRQHandler+0x152>
 8002686:	bf00      	nop
 8002688:	20000008 	.word	0x20000008
 800268c:	1b4e81b5 	.word	0x1b4e81b5

08002690 <HAL_GPIO_Init>:
 8002690:	e92d 4ff0 	stmdb	sp!, {r4, r5, r6, r7, r8, r9, sl, fp, lr}
 8002694:	2300      	movs	r3, #0
 8002696:	680c      	ldr	r4, [r1, #0]
 8002698:	f8df a218 	ldr.w	sl, [pc, #536]	@ 80028b4 <HAL_GPIO_Init+0x224>
 800269c:	b085      	sub	sp, #20
 800269e:	f04f 0b01 	mov.w	fp, #1
 80026a2:	4689      	mov	r9, r1
 80026a4:	e003      	b.n	80026ae <HAL_GPIO_Init+0x1e>
 80026a6:	3301      	adds	r3, #1
 80026a8:	2b10      	cmp	r3, #16
 80026aa:	f000 8091 	beq.w	80027d0 <HAL_GPIO_Init+0x140>
 80026ae:	fa0b f203 	lsl.w	r2, fp, r3
 80026b2:	ea02 0804 	and.w	r8, r2, r4
 80026b6:	43a2      	bics	r2, r4
 80026b8:	d1f5      	bne.n	80026a6 <HAL_GPIO_Init+0x16>
 80026ba:	f8d9 1004 	ldr.w	r1, [r9, #4]
 80026be:	f001 0203 	and.w	r2, r1, #3
 80026c2:	ea4f 0c43 	mov.w	ip, r3, lsl #1
 80026c6:	2503      	movs	r5, #3
 80026c8:	1e57      	subs	r7, r2, #1
 80026ca:	fa05 f50c 	lsl.w	r5, r5, ip
 80026ce:	2f01      	cmp	r7, #1
 80026d0:	ea6f 0505 	mvn.w	r5, r5
 80026d4:	d97f      	bls.n	80027d6 <HAL_GPIO_Init+0x146>
 80026d6:	2a03      	cmp	r2, #3
 80026d8:	f040 80b6 	bne.w	8002848 <HAL_GPIO_Init+0x1b8>
 80026dc:	6807      	ldr	r7, [r0, #0]
 80026de:	fa02 f20c 	lsl.w	r2, r2, ip
 80026e2:	403d      	ands	r5, r7
 80026e4:	432a      	orrs	r2, r5
 80026e6:	f411 3f40 	tst.w	r1, #196608	@ 0x30000
 80026ea:	6002      	str	r2, [r0, #0]
 80026ec:	d0db      	beq.n	80026a6 <HAL_GPIO_Init+0x16>
 80026ee:	2200      	movs	r2, #0
 80026f0:	9203      	str	r2, [sp, #12]
 80026f2:	f8da 2044 	ldr.w	r2, [sl, #68]	@ 0x44
 80026f6:	f442 4280 	orr.w	r2, r2, #16384	@ 0x4000
 80026fa:	f8ca 2044 	str.w	r2, [sl, #68]	@ 0x44
 80026fe:	f8da 2044 	ldr.w	r2, [sl, #68]	@ 0x44
 8002702:	f402 4280 	and.w	r2, r2, #16384	@ 0x4000
 8002706:	9203      	str	r2, [sp, #12]
 8002708:	9a03      	ldr	r2, [sp, #12]
 800270a:	f023 0203 	bic.w	r2, r3, #3
 800270e:	f102 4280 	add.w	r2, r2, #1073741824	@ 0x40000000
 8002712:	f003 0703 	and.w	r7, r3, #3
 8002716:	260f      	movs	r6, #15
 8002718:	f502 329c 	add.w	r2, r2, #79872	@ 0x13800
 800271c:	00bf      	lsls	r7, r7, #2
 800271e:	fa06 fc07 	lsl.w	ip, r6, r7
 8002722:	4e61      	ldr	r6, [pc, #388]	@ (80028a8 <HAL_GPIO_Init+0x218>)
 8002724:	6895      	ldr	r5, [r2, #8]
 8002726:	42b0      	cmp	r0, r6
 8002728:	ea25 050c 	bic.w	r5, r5, ip
 800272c:	d027      	beq.n	800277e <HAL_GPIO_Init+0xee>
 800272e:	f506 6680 	add.w	r6, r6, #1024	@ 0x400
 8002732:	42b0      	cmp	r0, r6
 8002734:	f000 8093 	beq.w	800285e <HAL_GPIO_Init+0x1ce>
 8002738:	4e5c      	ldr	r6, [pc, #368]	@ (80028ac <HAL_GPIO_Init+0x21c>)
 800273a:	42b0      	cmp	r0, r6
 800273c:	f000 8095 	beq.w	800286a <HAL_GPIO_Init+0x1da>
 8002740:	f8df c174 	ldr.w	ip, [pc, #372]	@ 80028b8 <HAL_GPIO_Init+0x228>
 8002744:	4560      	cmp	r0, ip
 8002746:	f000 8096 	beq.w	8002876 <HAL_GPIO_Init+0x1e6>
 800274a:	f8df c170 	ldr.w	ip, [pc, #368]	@ 80028bc <HAL_GPIO_Init+0x22c>
 800274e:	4560      	cmp	r0, ip
 8002750:	f000 8097 	beq.w	8002882 <HAL_GPIO_Init+0x1f2>
 8002754:	f8df c168 	ldr.w	ip, [pc, #360]	@ 80028c0 <HAL_GPIO_Init+0x230>
 8002758:	4560      	cmp	r0, ip
 800275a:	f000 8098 	beq.w	800288e <HAL_GPIO_Init+0x1fe>
 800275e:	f8df c164 	ldr.w	ip, [pc, #356]	@ 80028c4 <HAL_GPIO_Init+0x234>
 8002762:	4560      	cmp	r0, ip
 8002764:	f000 8099 	beq.w	800289a <HAL_GPIO_Init+0x20a>
 8002768:	f8df c15c 	ldr.w	ip, [pc, #348]	@ 80028c8 <HAL_GPIO_Init+0x238>
 800276c:	4560      	cmp	r0, ip
 800276e:	bf0c      	ite	eq
 8002770:	f04f 0c07 	moveq.w	ip, #7
 8002774:	f04f 0c08 	movne.w	ip, #8
 8002778:	fa0c f707 	lsl.w	r7, ip, r7
 800277c:	433d      	orrs	r5, r7
 800277e:	6095      	str	r5, [r2, #8]
 8002780:	4a4b      	ldr	r2, [pc, #300]	@ (80028b0 <HAL_GPIO_Init+0x220>)
 8002782:	6892      	ldr	r2, [r2, #8]
 8002784:	02ce      	lsls	r6, r1, #11
 8002786:	ea6f 0508 	mvn.w	r5, r8
 800278a:	4e49      	ldr	r6, [pc, #292]	@ (80028b0 <HAL_GPIO_Init+0x220>)
 800278c:	bf54      	ite	pl
 800278e:	402a      	andpl	r2, r5
 8002790:	ea48 0202 	orrmi.w	r2, r8, r2
 8002794:	60b2      	str	r2, [r6, #8]
 8002796:	68f2      	ldr	r2, [r6, #12]
 8002798:	4e45      	ldr	r6, [pc, #276]	@ (80028b0 <HAL_GPIO_Init+0x220>)
 800279a:	028f      	lsls	r7, r1, #10
 800279c:	bf54      	ite	pl
 800279e:	402a      	andpl	r2, r5
 80027a0:	ea48 0202 	orrmi.w	r2, r8, r2
 80027a4:	60f2      	str	r2, [r6, #12]
 80027a6:	6872      	ldr	r2, [r6, #4]
 80027a8:	038e      	lsls	r6, r1, #14
 80027aa:	4e41      	ldr	r6, [pc, #260]	@ (80028b0 <HAL_GPIO_Init+0x220>)
 80027ac:	bf54      	ite	pl
 80027ae:	402a      	andpl	r2, r5
 80027b0:	ea48 0202 	orrmi.w	r2, r8, r2
 80027b4:	6072      	str	r2, [r6, #4]
 80027b6:	6832      	ldr	r2, [r6, #0]
 80027b8:	03c9      	lsls	r1, r1, #15
 80027ba:	f103 0301 	add.w	r3, r3, #1
 80027be:	493c      	ldr	r1, [pc, #240]	@ (80028b0 <HAL_GPIO_Init+0x220>)
 80027c0:	bf54      	ite	pl
 80027c2:	402a      	andpl	r2, r5
 80027c4:	ea48 0202 	orrmi.w	r2, r8, r2
 80027c8:	2b10      	cmp	r3, #16
 80027ca:	600a      	str	r2, [r1, #0]
 80027cc:	f47f af6f 	bne.w	80026ae <HAL_GPIO_Init+0x1e>
 80027d0:	b005      	add	sp, #20
 80027d2:	e8bd 8ff0 	ldmia.w	sp!, {r4, r5, r6, r7, r8, r9, sl, fp, pc}
 80027d6:	6887      	ldr	r7, [r0, #8]
 80027d8:	ea07 0e05 	and.w	lr, r7, r5
 80027dc:	f8d9 700c 	ldr.w	r7, [r9, #12]
 80027e0:	fa07 f70c 	lsl.w	r7, r7, ip
 80027e4:	ea47 070e 	orr.w	r7, r7, lr
 80027e8:	6087      	str	r7, [r0, #8]
 80027ea:	6847      	ldr	r7, [r0, #4]
 80027ec:	ea27 0e08 	bic.w	lr, r7, r8
 80027f0:	f3c1 1700 	ubfx	r7, r1, #4, #1
 80027f4:	409f      	lsls	r7, r3
 80027f6:	ea47 070e 	orr.w	r7, r7, lr
 80027fa:	6047      	str	r7, [r0, #4]
 80027fc:	68c7      	ldr	r7, [r0, #12]
 80027fe:	ea07 0e05 	and.w	lr, r7, r5
 8002802:	f8d9 7008 	ldr.w	r7, [r9, #8]
 8002806:	fa07 f70c 	lsl.w	r7, r7, ip
 800280a:	ea47 070e 	orr.w	r7, r7, lr
 800280e:	2a02      	cmp	r2, #2
 8002810:	60c7      	str	r7, [r0, #12]
 8002812:	f47f af63 	bne.w	80026dc <HAL_GPIO_Init+0x4c>
 8002816:	08df      	lsrs	r7, r3, #3
 8002818:	eb00 0787 	add.w	r7, r0, r7, lsl #2
 800281c:	9701      	str	r7, [sp, #4]
 800281e:	6a3e      	ldr	r6, [r7, #32]
 8002820:	f8d9 7010 	ldr.w	r7, [r9, #16]
 8002824:	9600      	str	r6, [sp, #0]
 8002826:	f003 0e07 	and.w	lr, r3, #7
 800282a:	ea4f 0e8e 	mov.w	lr, lr, lsl #2
 800282e:	260f      	movs	r6, #15
 8002830:	fa07 f70e 	lsl.w	r7, r7, lr
 8002834:	fa06 fe0e 	lsl.w	lr, r6, lr
 8002838:	9e00      	ldr	r6, [sp, #0]
 800283a:	ea26 0e0e 	bic.w	lr, r6, lr
 800283e:	9e01      	ldr	r6, [sp, #4]
 8002840:	ea47 070e 	orr.w	r7, r7, lr
 8002844:	6237      	str	r7, [r6, #32]
 8002846:	e749      	b.n	80026dc <HAL_GPIO_Init+0x4c>
 8002848:	68c7      	ldr	r7, [r0, #12]
 800284a:	ea07 0e05 	and.w	lr, r7, r5
 800284e:	f8d9 7008 	ldr.w	r7, [r9, #8]
 8002852:	fa07 f70c 	lsl.w	r7, r7, ip
 8002856:	ea47 070e 	orr.w	r7, r7, lr
 800285a:	60c7      	str	r7, [r0, #12]
 800285c:	e73e      	b.n	80026dc <HAL_GPIO_Init+0x4c>
 800285e:	f04f 0c01 	mov.w	ip, #1
 8002862:	fa0c f707 	lsl.w	r7, ip, r7
 8002866:	433d      	orrs	r5, r7
 8002868:	e789      	b.n	800277e <HAL_GPIO_Init+0xee>
 800286a:	f04f 0c02 	mov.w	ip, #2
 800286e:	fa0c f707 	lsl.w	r7, ip, r7
 8002872:	433d      	orrs	r5, r7
 8002874:	e783      	b.n	800277e <HAL_GPIO_Init+0xee>
 8002876:	f04f 0c03 	mov.w	ip, #3
 800287a:	fa0c f707 	lsl.w	r7, ip, r7
 800287e:	433d      	orrs	r5, r7
 8002880:	e77d      	b.n	800277e <HAL_GPIO_Init+0xee>
 8002882:	f04f 0c04 	mov.w	ip, #4
 8002886:	fa0c f707 	lsl.w	r7, ip, r7
 800288a:	433d      	orrs	r5, r7
 800288c:	e777      	b.n	800277e <HAL_GPIO_Init+0xee>
 800288e:	f04f 0c05 	mov.w	ip, #5
 8002892:	fa0c f707 	lsl.w	r7, ip, r7
 8002896:	433d      	orrs	r5, r7
 8002898:	e771      	b.n	800277e <HAL_GPIO_Init+0xee>
 800289a:	f04f 0c06 	mov.w	ip, #6
 800289e:	fa0c f707 	lsl.w	r7, ip, r7
 80028a2:	433d      	orrs	r5, r7
 80028a4:	e76b      	b.n	800277e <HAL_GPIO_Init+0xee>
 80028a6:	bf00      	nop
 80028a8:	40020000 	.word	0x40020000
 80028ac:	40020800 	.word	0x40020800
 80028b0:	40013c00 	.word	0x40013c00
 80028b4:	40023800 	.word	0x40023800
 80028b8:	40020c00 	.word	0x40020c00
 80028bc:	40021000 	.word	0x40021000
 80028c0:	40021400 	.word	0x40021400
 80028c4:	40021800 	.word	0x40021800
 80028c8:	40021c00 	.word	0x40021c00

080028cc <HAL_GPIO_ReadPin>:
 80028cc:	6903      	ldr	r3, [r0, #16]
 80028ce:	4219      	tst	r1, r3
 80028d0:	bf14      	ite	ne
 80028d2:	2001      	movne	r0, #1
 80028d4:	2000      	moveq	r0, #0
 80028d6:	4770      	bx	lr

080028d8 <HAL_GPIO_WritePin>:
 80028d8:	b902      	cbnz	r2, 80028dc <HAL_GPIO_WritePin+0x4>
 80028da:	0409      	lsls	r1, r1, #16
 80028dc:	6181      	str	r1, [r0, #24]
 80028de:	4770      	bx	lr

080028e0 <HAL_GPIO_TogglePin>:
 80028e0:	6943      	ldr	r3, [r0, #20]
 80028e2:	ea01 0203 	and.w	r2, r1, r3
 80028e6:	ea21 0103 	bic.w	r1, r1, r3
 80028ea:	ea41 4102 	orr.w	r1, r1, r2, lsl #16
 80028ee:	6181      	str	r1, [r0, #24]
 80028f0:	4770      	bx	lr
 80028f2:	bf00      	nop

080028f4 <HAL_GPIO_EXTI_IRQHandler>:
 80028f4:	4a04      	ldr	r2, [pc, #16]	@ (8002908 <HAL_GPIO_EXTI_IRQHandler+0x14>)
 80028f6:	6951      	ldr	r1, [r2, #20]
 80028f8:	4201      	tst	r1, r0
 80028fa:	d100      	bne.n	80028fe <HAL_GPIO_EXTI_IRQHandler+0xa>
 80028fc:	4770      	bx	lr
 80028fe:	b508      	push	{r3, lr}
 8002900:	6150      	str	r0, [r2, #20]
 8002902:	f7fe fb87 	bl	8001014 <HAL_GPIO_EXTI_Callback>
 8002906:	bd08      	pop	{r3, pc}
 8002908:	40013c00 	.word	0x40013c00

0800290c <HAL_RCC_OscConfig>:
 800290c:	2800      	cmp	r0, #0
 800290e:	f000 81d8 	beq.w	8002cc2 <HAL_RCC_OscConfig+0x3b6>
 8002912:	e92d 41f0 	stmdb	sp!, {r4, r5, r6, r7, r8, lr}
 8002916:	6803      	ldr	r3, [r0, #0]
 8002918:	07dd      	lsls	r5, r3, #31
 800291a:	b082      	sub	sp, #8
 800291c:	4604      	mov	r4, r0
 800291e:	d52f      	bpl.n	8002980 <HAL_RCC_OscConfig+0x74>
 8002920:	499d      	ldr	r1, [pc, #628]	@ (8002b98 <HAL_RCC_OscConfig+0x28c>)
 8002922:	688a      	ldr	r2, [r1, #8]
 8002924:	f002 020c 	and.w	r2, r2, #12
 8002928:	2a04      	cmp	r2, #4
 800292a:	f000 80ec 	beq.w	8002b06 <HAL_RCC_OscConfig+0x1fa>
 800292e:	688a      	ldr	r2, [r1, #8]
 8002930:	f002 020c 	and.w	r2, r2, #12
 8002934:	2a08      	cmp	r2, #8
 8002936:	f000 80e2 	beq.w	8002afe <HAL_RCC_OscConfig+0x1f2>
 800293a:	6863      	ldr	r3, [r4, #4]
 800293c:	f5b3 3f80 	cmp.w	r3, #65536	@ 0x10000
 8002940:	f000 80eb 	beq.w	8002b1a <HAL_RCC_OscConfig+0x20e>
 8002944:	f5b3 2fa0 	cmp.w	r3, #327680	@ 0x50000
 8002948:	f000 8173 	beq.w	8002c32 <HAL_RCC_OscConfig+0x326>
 800294c:	4d92      	ldr	r5, [pc, #584]	@ (8002b98 <HAL_RCC_OscConfig+0x28c>)
 800294e:	682a      	ldr	r2, [r5, #0]
 8002950:	f422 3280 	bic.w	r2, r2, #65536	@ 0x10000
 8002954:	602a      	str	r2, [r5, #0]
 8002956:	682a      	ldr	r2, [r5, #0]
 8002958:	f422 2280 	bic.w	r2, r2, #262144	@ 0x40000
 800295c:	602a      	str	r2, [r5, #0]
 800295e:	2b00      	cmp	r3, #0
 8002960:	f040 80e0 	bne.w	8002b24 <HAL_RCC_OscConfig+0x218>
 8002964:	f7ff f928 	bl	8001bb8 <HAL_GetTick>
 8002968:	4606      	mov	r6, r0
 800296a:	e005      	b.n	8002978 <HAL_RCC_OscConfig+0x6c>
 800296c:	f7ff f924 	bl	8001bb8 <HAL_GetTick>
 8002970:	1b80      	subs	r0, r0, r6
 8002972:	2864      	cmp	r0, #100	@ 0x64
 8002974:	f200 8100 	bhi.w	8002b78 <HAL_RCC_OscConfig+0x26c>
 8002978:	682b      	ldr	r3, [r5, #0]
 800297a:	039f      	lsls	r7, r3, #14
 800297c:	d4f6      	bmi.n	800296c <HAL_RCC_OscConfig+0x60>
 800297e:	6823      	ldr	r3, [r4, #0]
 8002980:	079d      	lsls	r5, r3, #30
 8002982:	d528      	bpl.n	80029d6 <HAL_RCC_OscConfig+0xca>
 8002984:	4a84      	ldr	r2, [pc, #528]	@ (8002b98 <HAL_RCC_OscConfig+0x28c>)
 8002986:	6891      	ldr	r1, [r2, #8]
 8002988:	f011 0f0c 	tst.w	r1, #12
 800298c:	f000 809b 	beq.w	8002ac6 <HAL_RCC_OscConfig+0x1ba>
 8002990:	6891      	ldr	r1, [r2, #8]
 8002992:	f001 010c 	and.w	r1, r1, #12
 8002996:	2908      	cmp	r1, #8
 8002998:	f000 8091 	beq.w	8002abe <HAL_RCC_OscConfig+0x1b2>
 800299c:	68e3      	ldr	r3, [r4, #12]
 800299e:	2b00      	cmp	r3, #0
 80029a0:	f000 810c 	beq.w	8002bbc <HAL_RCC_OscConfig+0x2b0>
 80029a4:	4b7d      	ldr	r3, [pc, #500]	@ (8002b9c <HAL_RCC_OscConfig+0x290>)
 80029a6:	4e7c      	ldr	r6, [pc, #496]	@ (8002b98 <HAL_RCC_OscConfig+0x28c>)
 80029a8:	2201      	movs	r2, #1
 80029aa:	601a      	str	r2, [r3, #0]
 80029ac:	f7ff f904 	bl	8001bb8 <HAL_GetTick>
 80029b0:	4605      	mov	r5, r0
 80029b2:	e005      	b.n	80029c0 <HAL_RCC_OscConfig+0xb4>
 80029b4:	f7ff f900 	bl	8001bb8 <HAL_GetTick>
 80029b8:	1b40      	subs	r0, r0, r5
 80029ba:	2802      	cmp	r0, #2
 80029bc:	f200 80dc 	bhi.w	8002b78 <HAL_RCC_OscConfig+0x26c>
 80029c0:	6833      	ldr	r3, [r6, #0]
 80029c2:	079f      	lsls	r7, r3, #30
 80029c4:	d5f6      	bpl.n	80029b4 <HAL_RCC_OscConfig+0xa8>
 80029c6:	6833      	ldr	r3, [r6, #0]
 80029c8:	6922      	ldr	r2, [r4, #16]
 80029ca:	f023 03f8 	bic.w	r3, r3, #248	@ 0xf8
 80029ce:	ea43 03c2 	orr.w	r3, r3, r2, lsl #3
 80029d2:	6033      	str	r3, [r6, #0]
 80029d4:	6823      	ldr	r3, [r4, #0]
 80029d6:	071a      	lsls	r2, r3, #28
 80029d8:	d45c      	bmi.n	8002a94 <HAL_RCC_OscConfig+0x188>
 80029da:	075d      	lsls	r5, r3, #29
 80029dc:	d53a      	bpl.n	8002a54 <HAL_RCC_OscConfig+0x148>
 80029de:	4a6e      	ldr	r2, [pc, #440]	@ (8002b98 <HAL_RCC_OscConfig+0x28c>)
 80029e0:	6c13      	ldr	r3, [r2, #64]	@ 0x40
 80029e2:	f013 5380 	ands.w	r3, r3, #268435456	@ 0x10000000
 80029e6:	f040 8088 	bne.w	8002afa <HAL_RCC_OscConfig+0x1ee>
 80029ea:	9301      	str	r3, [sp, #4]
 80029ec:	6c13      	ldr	r3, [r2, #64]	@ 0x40
 80029ee:	f043 5380 	orr.w	r3, r3, #268435456	@ 0x10000000
 80029f2:	6413      	str	r3, [r2, #64]	@ 0x40
 80029f4:	6c13      	ldr	r3, [r2, #64]	@ 0x40
 80029f6:	f003 5380 	and.w	r3, r3, #268435456	@ 0x10000000
 80029fa:	9301      	str	r3, [sp, #4]
 80029fc:	9b01      	ldr	r3, [sp, #4]
 80029fe:	2501      	movs	r5, #1
 8002a00:	4e67      	ldr	r6, [pc, #412]	@ (8002ba0 <HAL_RCC_OscConfig+0x294>)
 8002a02:	6833      	ldr	r3, [r6, #0]
 8002a04:	05d8      	lsls	r0, r3, #23
 8002a06:	f140 80a7 	bpl.w	8002b58 <HAL_RCC_OscConfig+0x24c>
 8002a0a:	68a3      	ldr	r3, [r4, #8]
 8002a0c:	2b01      	cmp	r3, #1
 8002a0e:	f000 80b7 	beq.w	8002b80 <HAL_RCC_OscConfig+0x274>
 8002a12:	2b05      	cmp	r3, #5
 8002a14:	f000 811d 	beq.w	8002c52 <HAL_RCC_OscConfig+0x346>
 8002a18:	4e5f      	ldr	r6, [pc, #380]	@ (8002b98 <HAL_RCC_OscConfig+0x28c>)
 8002a1a:	6f32      	ldr	r2, [r6, #112]	@ 0x70
 8002a1c:	f022 0201 	bic.w	r2, r2, #1
 8002a20:	6732      	str	r2, [r6, #112]	@ 0x70
 8002a22:	6f32      	ldr	r2, [r6, #112]	@ 0x70
 8002a24:	f022 0204 	bic.w	r2, r2, #4
 8002a28:	6732      	str	r2, [r6, #112]	@ 0x70
 8002a2a:	2b00      	cmp	r3, #0
 8002a2c:	f040 80ad 	bne.w	8002b8a <HAL_RCC_OscConfig+0x27e>
 8002a30:	f7ff f8c2 	bl	8001bb8 <HAL_GetTick>
 8002a34:	f241 3888 	movw	r8, #5000	@ 0x1388
 8002a38:	4607      	mov	r7, r0
 8002a3a:	e005      	b.n	8002a48 <HAL_RCC_OscConfig+0x13c>
 8002a3c:	f7ff f8bc 	bl	8001bb8 <HAL_GetTick>
 8002a40:	1bc0      	subs	r0, r0, r7
 8002a42:	4540      	cmp	r0, r8
 8002a44:	f200 8098 	bhi.w	8002b78 <HAL_RCC_OscConfig+0x26c>
 8002a48:	6f33      	ldr	r3, [r6, #112]	@ 0x70
 8002a4a:	079b      	lsls	r3, r3, #30
 8002a4c:	d4f6      	bmi.n	8002a3c <HAL_RCC_OscConfig+0x130>
 8002a4e:	2d00      	cmp	r5, #0
 8002a50:	f040 80f9 	bne.w	8002c46 <HAL_RCC_OscConfig+0x33a>
 8002a54:	69a3      	ldr	r3, [r4, #24]
 8002a56:	b1cb      	cbz	r3, 8002a8c <HAL_RCC_OscConfig+0x180>
 8002a58:	4d4f      	ldr	r5, [pc, #316]	@ (8002b98 <HAL_RCC_OscConfig+0x28c>)
 8002a5a:	68aa      	ldr	r2, [r5, #8]
 8002a5c:	f002 020c 	and.w	r2, r2, #12
 8002a60:	2a08      	cmp	r2, #8
 8002a62:	f000 80bc 	beq.w	8002bde <HAL_RCC_OscConfig+0x2d2>
 8002a66:	2b02      	cmp	r3, #2
 8002a68:	4b4c      	ldr	r3, [pc, #304]	@ (8002b9c <HAL_RCC_OscConfig+0x290>)
 8002a6a:	f04f 0200 	mov.w	r2, #0
 8002a6e:	661a      	str	r2, [r3, #96]	@ 0x60
 8002a70:	f000 80f9 	beq.w	8002c66 <HAL_RCC_OscConfig+0x35a>
 8002a74:	f7ff f8a0 	bl	8001bb8 <HAL_GetTick>
 8002a78:	4604      	mov	r4, r0
 8002a7a:	e004      	b.n	8002a86 <HAL_RCC_OscConfig+0x17a>
 8002a7c:	f7ff f89c 	bl	8001bb8 <HAL_GetTick>
 8002a80:	1b00      	subs	r0, r0, r4
 8002a82:	2802      	cmp	r0, #2
 8002a84:	d878      	bhi.n	8002b78 <HAL_RCC_OscConfig+0x26c>
 8002a86:	682b      	ldr	r3, [r5, #0]
 8002a88:	019b      	lsls	r3, r3, #6
 8002a8a:	d4f7      	bmi.n	8002a7c <HAL_RCC_OscConfig+0x170>
 8002a8c:	2000      	movs	r0, #0
 8002a8e:	b002      	add	sp, #8
 8002a90:	e8bd 81f0 	ldmia.w	sp!, {r4, r5, r6, r7, r8, pc}
 8002a94:	6963      	ldr	r3, [r4, #20]
 8002a96:	b1fb      	cbz	r3, 8002ad8 <HAL_RCC_OscConfig+0x1cc>
 8002a98:	4b40      	ldr	r3, [pc, #256]	@ (8002b9c <HAL_RCC_OscConfig+0x290>)
 8002a9a:	4e3f      	ldr	r6, [pc, #252]	@ (8002b98 <HAL_RCC_OscConfig+0x28c>)
 8002a9c:	2201      	movs	r2, #1
 8002a9e:	f8c3 2e80 	str.w	r2, [r3, #3712]	@ 0xe80
 8002aa2:	f7ff f889 	bl	8001bb8 <HAL_GetTick>
 8002aa6:	4605      	mov	r5, r0
 8002aa8:	e004      	b.n	8002ab4 <HAL_RCC_OscConfig+0x1a8>
 8002aaa:	f7ff f885 	bl	8001bb8 <HAL_GetTick>
 8002aae:	1b40      	subs	r0, r0, r5
 8002ab0:	2802      	cmp	r0, #2
 8002ab2:	d861      	bhi.n	8002b78 <HAL_RCC_OscConfig+0x26c>
 8002ab4:	6f73      	ldr	r3, [r6, #116]	@ 0x74
 8002ab6:	079b      	lsls	r3, r3, #30
 8002ab8:	d5f7      	bpl.n	8002aaa <HAL_RCC_OscConfig+0x19e>
 8002aba:	6823      	ldr	r3, [r4, #0]
 8002abc:	e78d      	b.n	80029da <HAL_RCC_OscConfig+0xce>
 8002abe:	6852      	ldr	r2, [r2, #4]
 8002ac0:	0251      	lsls	r1, r2, #9
 8002ac2:	f53f af6b 	bmi.w	800299c <HAL_RCC_OscConfig+0x90>
 8002ac6:	4a34      	ldr	r2, [pc, #208]	@ (8002b98 <HAL_RCC_OscConfig+0x28c>)
 8002ac8:	6812      	ldr	r2, [r2, #0]
 8002aca:	0792      	lsls	r2, r2, #30
 8002acc:	d538      	bpl.n	8002b40 <HAL_RCC_OscConfig+0x234>
 8002ace:	68e2      	ldr	r2, [r4, #12]
 8002ad0:	2a01      	cmp	r2, #1
 8002ad2:	d035      	beq.n	8002b40 <HAL_RCC_OscConfig+0x234>
 8002ad4:	2001      	movs	r0, #1
 8002ad6:	e7da      	b.n	8002a8e <HAL_RCC_OscConfig+0x182>
 8002ad8:	4a30      	ldr	r2, [pc, #192]	@ (8002b9c <HAL_RCC_OscConfig+0x290>)
 8002ada:	4e2f      	ldr	r6, [pc, #188]	@ (8002b98 <HAL_RCC_OscConfig+0x28c>)
 8002adc:	f8c2 3e80 	str.w	r3, [r2, #3712]	@ 0xe80
 8002ae0:	f7ff f86a 	bl	8001bb8 <HAL_GetTick>
 8002ae4:	4605      	mov	r5, r0
 8002ae6:	e004      	b.n	8002af2 <HAL_RCC_OscConfig+0x1e6>
 8002ae8:	f7ff f866 	bl	8001bb8 <HAL_GetTick>
 8002aec:	1b40      	subs	r0, r0, r5
 8002aee:	2802      	cmp	r0, #2
 8002af0:	d842      	bhi.n	8002b78 <HAL_RCC_OscConfig+0x26c>
 8002af2:	6f73      	ldr	r3, [r6, #116]	@ 0x74
 8002af4:	079f      	lsls	r7, r3, #30
 8002af6:	d4f7      	bmi.n	8002ae8 <HAL_RCC_OscConfig+0x1dc>
 8002af8:	e7df      	b.n	8002aba <HAL_RCC_OscConfig+0x1ae>
 8002afa:	2500      	movs	r5, #0
 8002afc:	e780      	b.n	8002a00 <HAL_RCC_OscConfig+0xf4>
 8002afe:	684a      	ldr	r2, [r1, #4]
 8002b00:	0251      	lsls	r1, r2, #9
 8002b02:	f57f af1a 	bpl.w	800293a <HAL_RCC_OscConfig+0x2e>
 8002b06:	4a24      	ldr	r2, [pc, #144]	@ (8002b98 <HAL_RCC_OscConfig+0x28c>)
 8002b08:	6812      	ldr	r2, [r2, #0]
 8002b0a:	0392      	lsls	r2, r2, #14
 8002b0c:	f57f af38 	bpl.w	8002980 <HAL_RCC_OscConfig+0x74>
 8002b10:	6862      	ldr	r2, [r4, #4]
 8002b12:	2a00      	cmp	r2, #0
 8002b14:	f47f af34 	bne.w	8002980 <HAL_RCC_OscConfig+0x74>
 8002b18:	e7dc      	b.n	8002ad4 <HAL_RCC_OscConfig+0x1c8>
 8002b1a:	4a1f      	ldr	r2, [pc, #124]	@ (8002b98 <HAL_RCC_OscConfig+0x28c>)
 8002b1c:	6813      	ldr	r3, [r2, #0]
 8002b1e:	f443 3380 	orr.w	r3, r3, #65536	@ 0x10000
 8002b22:	6013      	str	r3, [r2, #0]
 8002b24:	f7ff f848 	bl	8001bb8 <HAL_GetTick>
 8002b28:	4e1b      	ldr	r6, [pc, #108]	@ (8002b98 <HAL_RCC_OscConfig+0x28c>)
 8002b2a:	4605      	mov	r5, r0
 8002b2c:	e004      	b.n	8002b38 <HAL_RCC_OscConfig+0x22c>
 8002b2e:	f7ff f843 	bl	8001bb8 <HAL_GetTick>
 8002b32:	1b40      	subs	r0, r0, r5
 8002b34:	2864      	cmp	r0, #100	@ 0x64
 8002b36:	d81f      	bhi.n	8002b78 <HAL_RCC_OscConfig+0x26c>
 8002b38:	6833      	ldr	r3, [r6, #0]
 8002b3a:	039b      	lsls	r3, r3, #14
 8002b3c:	d5f7      	bpl.n	8002b2e <HAL_RCC_OscConfig+0x222>
 8002b3e:	e71e      	b.n	800297e <HAL_RCC_OscConfig+0x72>
 8002b40:	4915      	ldr	r1, [pc, #84]	@ (8002b98 <HAL_RCC_OscConfig+0x28c>)
 8002b42:	6920      	ldr	r0, [r4, #16]
 8002b44:	680a      	ldr	r2, [r1, #0]
 8002b46:	f022 02f8 	bic.w	r2, r2, #248	@ 0xf8
 8002b4a:	ea42 02c0 	orr.w	r2, r2, r0, lsl #3
 8002b4e:	600a      	str	r2, [r1, #0]
 8002b50:	071a      	lsls	r2, r3, #28
 8002b52:	f57f af42 	bpl.w	80029da <HAL_RCC_OscConfig+0xce>
 8002b56:	e79d      	b.n	8002a94 <HAL_RCC_OscConfig+0x188>
 8002b58:	6833      	ldr	r3, [r6, #0]
 8002b5a:	f443 7380 	orr.w	r3, r3, #256	@ 0x100
 8002b5e:	6033      	str	r3, [r6, #0]
 8002b60:	f7ff f82a 	bl	8001bb8 <HAL_GetTick>
 8002b64:	4607      	mov	r7, r0
 8002b66:	6833      	ldr	r3, [r6, #0]
 8002b68:	05d9      	lsls	r1, r3, #23
 8002b6a:	f53f af4e 	bmi.w	8002a0a <HAL_RCC_OscConfig+0xfe>
 8002b6e:	f7ff f823 	bl	8001bb8 <HAL_GetTick>
 8002b72:	1bc0      	subs	r0, r0, r7
 8002b74:	2802      	cmp	r0, #2
 8002b76:	d9f6      	bls.n	8002b66 <HAL_RCC_OscConfig+0x25a>
 8002b78:	2003      	movs	r0, #3
 8002b7a:	b002      	add	sp, #8
 8002b7c:	e8bd 81f0 	ldmia.w	sp!, {r4, r5, r6, r7, r8, pc}
 8002b80:	4a05      	ldr	r2, [pc, #20]	@ (8002b98 <HAL_RCC_OscConfig+0x28c>)
 8002b82:	6f13      	ldr	r3, [r2, #112]	@ 0x70
 8002b84:	f043 0301 	orr.w	r3, r3, #1
 8002b88:	6713      	str	r3, [r2, #112]	@ 0x70
 8002b8a:	f7ff f815 	bl	8001bb8 <HAL_GetTick>
 8002b8e:	4f02      	ldr	r7, [pc, #8]	@ (8002b98 <HAL_RCC_OscConfig+0x28c>)
 8002b90:	4606      	mov	r6, r0
 8002b92:	f241 3888 	movw	r8, #5000	@ 0x1388
 8002b96:	e00a      	b.n	8002bae <HAL_RCC_OscConfig+0x2a2>
 8002b98:	40023800 	.word	0x40023800
 8002b9c:	42470000 	.word	0x42470000
 8002ba0:	40007000 	.word	0x40007000
 8002ba4:	f7ff f808 	bl	8001bb8 <HAL_GetTick>
 8002ba8:	1b80      	subs	r0, r0, r6
 8002baa:	4540      	cmp	r0, r8
 8002bac:	d8e4      	bhi.n	8002b78 <HAL_RCC_OscConfig+0x26c>
 8002bae:	6f3b      	ldr	r3, [r7, #112]	@ 0x70
 8002bb0:	079a      	lsls	r2, r3, #30
 8002bb2:	d5f7      	bpl.n	8002ba4 <HAL_RCC_OscConfig+0x298>
 8002bb4:	2d00      	cmp	r5, #0
 8002bb6:	f43f af4d 	beq.w	8002a54 <HAL_RCC_OscConfig+0x148>
 8002bba:	e044      	b.n	8002c46 <HAL_RCC_OscConfig+0x33a>
 8002bbc:	4a42      	ldr	r2, [pc, #264]	@ (8002cc8 <HAL_RCC_OscConfig+0x3bc>)
 8002bbe:	4e43      	ldr	r6, [pc, #268]	@ (8002ccc <HAL_RCC_OscConfig+0x3c0>)
 8002bc0:	6013      	str	r3, [r2, #0]
 8002bc2:	f7fe fff9 	bl	8001bb8 <HAL_GetTick>
 8002bc6:	4605      	mov	r5, r0
 8002bc8:	e004      	b.n	8002bd4 <HAL_RCC_OscConfig+0x2c8>
 8002bca:	f7fe fff5 	bl	8001bb8 <HAL_GetTick>
 8002bce:	1b40      	subs	r0, r0, r5
 8002bd0:	2802      	cmp	r0, #2
 8002bd2:	d8d1      	bhi.n	8002b78 <HAL_RCC_OscConfig+0x26c>
 8002bd4:	6833      	ldr	r3, [r6, #0]
 8002bd6:	0799      	lsls	r1, r3, #30
 8002bd8:	d4f7      	bmi.n	8002bca <HAL_RCC_OscConfig+0x2be>
 8002bda:	6823      	ldr	r3, [r4, #0]
 8002bdc:	e6fb      	b.n	80029d6 <HAL_RCC_OscConfig+0xca>
 8002bde:	2b01      	cmp	r3, #1
 8002be0:	f43f af78 	beq.w	8002ad4 <HAL_RCC_OscConfig+0x1c8>
 8002be4:	686b      	ldr	r3, [r5, #4]
 8002be6:	69e2      	ldr	r2, [r4, #28]
 8002be8:	f403 0180 	and.w	r1, r3, #4194304	@ 0x400000
 8002bec:	4291      	cmp	r1, r2
 8002bee:	f47f af71 	bne.w	8002ad4 <HAL_RCC_OscConfig+0x1c8>
 8002bf2:	6a22      	ldr	r2, [r4, #32]
 8002bf4:	f003 013f 	and.w	r1, r3, #63	@ 0x3f
 8002bf8:	4291      	cmp	r1, r2
 8002bfa:	f47f af6b 	bne.w	8002ad4 <HAL_RCC_OscConfig+0x1c8>
 8002bfe:	6a61      	ldr	r1, [r4, #36]	@ 0x24
 8002c00:	f647 72c0 	movw	r2, #32704	@ 0x7fc0
 8002c04:	401a      	ands	r2, r3
 8002c06:	ebb2 1f81 	cmp.w	r2, r1, lsl #6
 8002c0a:	f47f af63 	bne.w	8002ad4 <HAL_RCC_OscConfig+0x1c8>
 8002c0e:	6aa2      	ldr	r2, [r4, #40]	@ 0x28
 8002c10:	0852      	lsrs	r2, r2, #1
 8002c12:	f403 3140 	and.w	r1, r3, #196608	@ 0x30000
 8002c16:	3a01      	subs	r2, #1
 8002c18:	ebb1 4f02 	cmp.w	r1, r2, lsl #16
 8002c1c:	f47f af5a 	bne.w	8002ad4 <HAL_RCC_OscConfig+0x1c8>
 8002c20:	6ae2      	ldr	r2, [r4, #44]	@ 0x2c
 8002c22:	f003 6370 	and.w	r3, r3, #251658240	@ 0xf000000
 8002c26:	ebb3 6f02 	cmp.w	r3, r2, lsl #24
 8002c2a:	bf14      	ite	ne
 8002c2c:	2001      	movne	r0, #1
 8002c2e:	2000      	moveq	r0, #0
 8002c30:	e72d      	b.n	8002a8e <HAL_RCC_OscConfig+0x182>
 8002c32:	4b26      	ldr	r3, [pc, #152]	@ (8002ccc <HAL_RCC_OscConfig+0x3c0>)
 8002c34:	681a      	ldr	r2, [r3, #0]
 8002c36:	f442 2280 	orr.w	r2, r2, #262144	@ 0x40000
 8002c3a:	601a      	str	r2, [r3, #0]
 8002c3c:	681a      	ldr	r2, [r3, #0]
 8002c3e:	f442 3280 	orr.w	r2, r2, #65536	@ 0x10000
 8002c42:	601a      	str	r2, [r3, #0]
 8002c44:	e76e      	b.n	8002b24 <HAL_RCC_OscConfig+0x218>
 8002c46:	4a21      	ldr	r2, [pc, #132]	@ (8002ccc <HAL_RCC_OscConfig+0x3c0>)
 8002c48:	6c13      	ldr	r3, [r2, #64]	@ 0x40
 8002c4a:	f023 5380 	bic.w	r3, r3, #268435456	@ 0x10000000
 8002c4e:	6413      	str	r3, [r2, #64]	@ 0x40
 8002c50:	e700      	b.n	8002a54 <HAL_RCC_OscConfig+0x148>
 8002c52:	4b1e      	ldr	r3, [pc, #120]	@ (8002ccc <HAL_RCC_OscConfig+0x3c0>)
 8002c54:	6f1a      	ldr	r2, [r3, #112]	@ 0x70
 8002c56:	f042 0204 	orr.w	r2, r2, #4
 8002c5a:	671a      	str	r2, [r3, #112]	@ 0x70
 8002c5c:	6f1a      	ldr	r2, [r3, #112]	@ 0x70
 8002c5e:	f042 0201 	orr.w	r2, r2, #1
 8002c62:	671a      	str	r2, [r3, #112]	@ 0x70
 8002c64:	e791      	b.n	8002b8a <HAL_RCC_OscConfig+0x27e>
 8002c66:	f7fe ffa7 	bl	8001bb8 <HAL_GetTick>
 8002c6a:	4606      	mov	r6, r0
 8002c6c:	e005      	b.n	8002c7a <HAL_RCC_OscConfig+0x36e>
 8002c6e:	f7fe ffa3 	bl	8001bb8 <HAL_GetTick>
 8002c72:	1b80      	subs	r0, r0, r6
 8002c74:	2802      	cmp	r0, #2
 8002c76:	f63f af7f 	bhi.w	8002b78 <HAL_RCC_OscConfig+0x26c>
 8002c7a:	682b      	ldr	r3, [r5, #0]
 8002c7c:	0199      	lsls	r1, r3, #6
 8002c7e:	d4f6      	bmi.n	8002c6e <HAL_RCC_OscConfig+0x362>
 8002c80:	e9d4 3107 	ldrd	r3, r1, [r4, #28]
 8002c84:	6a62      	ldr	r2, [r4, #36]	@ 0x24
 8002c86:	430b      	orrs	r3, r1
 8002c88:	ea43 1382 	orr.w	r3, r3, r2, lsl #6
 8002c8c:	e9d4 210a 	ldrd	r2, r1, [r4, #40]	@ 0x28
 8002c90:	0852      	lsrs	r2, r2, #1
 8002c92:	ea43 6301 	orr.w	r3, r3, r1, lsl #24
 8002c96:	3a01      	subs	r2, #1
 8002c98:	490b      	ldr	r1, [pc, #44]	@ (8002cc8 <HAL_RCC_OscConfig+0x3bc>)
 8002c9a:	ea43 4302 	orr.w	r3, r3, r2, lsl #16
 8002c9e:	2201      	movs	r2, #1
 8002ca0:	606b      	str	r3, [r5, #4]
 8002ca2:	660a      	str	r2, [r1, #96]	@ 0x60
 8002ca4:	f7fe ff88 	bl	8001bb8 <HAL_GetTick>
 8002ca8:	4d08      	ldr	r5, [pc, #32]	@ (8002ccc <HAL_RCC_OscConfig+0x3c0>)
 8002caa:	4604      	mov	r4, r0
 8002cac:	e005      	b.n	8002cba <HAL_RCC_OscConfig+0x3ae>
 8002cae:	f7fe ff83 	bl	8001bb8 <HAL_GetTick>
 8002cb2:	1b00      	subs	r0, r0, r4
 8002cb4:	2802      	cmp	r0, #2
 8002cb6:	f63f af5f 	bhi.w	8002b78 <HAL_RCC_OscConfig+0x26c>
 8002cba:	682b      	ldr	r3, [r5, #0]
 8002cbc:	019a      	lsls	r2, r3, #6
 8002cbe:	d5f6      	bpl.n	8002cae <HAL_RCC_OscConfig+0x3a2>
 8002cc0:	e6e4      	b.n	8002a8c <HAL_RCC_OscConfig+0x180>
 8002cc2:	2001      	movs	r0, #1
 8002cc4:	4770      	bx	lr
 8002cc6:	bf00      	nop
 8002cc8:	42470000 	.word	0x42470000
 8002ccc:	40023800 	.word	0x40023800

08002cd0 <HAL_RCC_EnableCSS>:
 8002cd0:	4b01      	ldr	r3, [pc, #4]	@ (8002cd8 <HAL_RCC_EnableCSS+0x8>)
 8002cd2:	2201      	movs	r2, #1
 8002cd4:	64da      	str	r2, [r3, #76]	@ 0x4c
 8002cd6:	4770      	bx	lr
 8002cd8:	42470000 	.word	0x42470000

08002cdc <HAL_RCC_GetSysClockFreq>:
 8002cdc:	4916      	ldr	r1, [pc, #88]	@ (8002d38 <HAL_RCC_GetSysClockFreq+0x5c>)
 8002cde:	b508      	push	{r3, lr}
 8002ce0:	688b      	ldr	r3, [r1, #8]
 8002ce2:	f003 030c 	and.w	r3, r3, #12
 8002ce6:	2b04      	cmp	r3, #4
 8002ce8:	d01b      	beq.n	8002d22 <HAL_RCC_GetSysClockFreq+0x46>
 8002cea:	2b08      	cmp	r3, #8
 8002cec:	d117      	bne.n	8002d1e <HAL_RCC_GetSysClockFreq+0x42>
 8002cee:	684a      	ldr	r2, [r1, #4]
 8002cf0:	684b      	ldr	r3, [r1, #4]
 8002cf2:	6849      	ldr	r1, [r1, #4]
 8002cf4:	f413 0380 	ands.w	r3, r3, #4194304	@ 0x400000
 8002cf8:	f002 023f 	and.w	r2, r2, #63	@ 0x3f
 8002cfc:	d113      	bne.n	8002d26 <HAL_RCC_GetSysClockFreq+0x4a>
 8002cfe:	480f      	ldr	r0, [pc, #60]	@ (8002d3c <HAL_RCC_GetSysClockFreq+0x60>)
 8002d00:	f3c1 1188 	ubfx	r1, r1, #6, #9
 8002d04:	fba1 0100 	umull	r0, r1, r1, r0
 8002d08:	f7fd fe4a 	bl	80009a0 <__aeabi_uldivmod>
 8002d0c:	4b0a      	ldr	r3, [pc, #40]	@ (8002d38 <HAL_RCC_GetSysClockFreq+0x5c>)
 8002d0e:	685b      	ldr	r3, [r3, #4]
 8002d10:	f3c3 4301 	ubfx	r3, r3, #16, #2
 8002d14:	3301      	adds	r3, #1
 8002d16:	005b      	lsls	r3, r3, #1
 8002d18:	fbb0 f0f3 	udiv	r0, r0, r3
 8002d1c:	bd08      	pop	{r3, pc}
 8002d1e:	4807      	ldr	r0, [pc, #28]	@ (8002d3c <HAL_RCC_GetSysClockFreq+0x60>)
 8002d20:	bd08      	pop	{r3, pc}
 8002d22:	4807      	ldr	r0, [pc, #28]	@ (8002d40 <HAL_RCC_GetSysClockFreq+0x64>)
 8002d24:	bd08      	pop	{r3, pc}
 8002d26:	4806      	ldr	r0, [pc, #24]	@ (8002d40 <HAL_RCC_GetSysClockFreq+0x64>)
 8002d28:	f3c1 1188 	ubfx	r1, r1, #6, #9
 8002d2c:	2300      	movs	r3, #0
 8002d2e:	fba1 0100 	umull	r0, r1, r1, r0
 8002d32:	f7fd fe35 	bl	80009a0 <__aeabi_uldivmod>
 8002d36:	e7e9      	b.n	8002d0c <HAL_RCC_GetSysClockFreq+0x30>
 8002d38:	40023800 	.word	0x40023800
 8002d3c:	00f42400 	.word	0x00f42400
 8002d40:	017d7840 	.word	0x017d7840

08002d44 <HAL_RCC_ClockConfig>:
 8002d44:	2800      	cmp	r0, #0
 8002d46:	f000 8087 	beq.w	8002e58 <HAL_RCC_ClockConfig+0x114>
 8002d4a:	4a48      	ldr	r2, [pc, #288]	@ (8002e6c <HAL_RCC_ClockConfig+0x128>)
 8002d4c:	6813      	ldr	r3, [r2, #0]
 8002d4e:	f003 0307 	and.w	r3, r3, #7
 8002d52:	428b      	cmp	r3, r1
 8002d54:	e92d 41f0 	stmdb	sp!, {r4, r5, r6, r7, r8, lr}
 8002d58:	460d      	mov	r5, r1
 8002d5a:	4604      	mov	r4, r0
 8002d5c:	d209      	bcs.n	8002d72 <HAL_RCC_ClockConfig+0x2e>
 8002d5e:	b2cb      	uxtb	r3, r1
 8002d60:	7013      	strb	r3, [r2, #0]
 8002d62:	6813      	ldr	r3, [r2, #0]
 8002d64:	f003 0307 	and.w	r3, r3, #7
 8002d68:	428b      	cmp	r3, r1
 8002d6a:	d002      	beq.n	8002d72 <HAL_RCC_ClockConfig+0x2e>
 8002d6c:	2001      	movs	r0, #1
 8002d6e:	e8bd 81f0 	ldmia.w	sp!, {r4, r5, r6, r7, r8, pc}
 8002d72:	6823      	ldr	r3, [r4, #0]
 8002d74:	0798      	lsls	r0, r3, #30
 8002d76:	d514      	bpl.n	8002da2 <HAL_RCC_ClockConfig+0x5e>
 8002d78:	0759      	lsls	r1, r3, #29
 8002d7a:	d504      	bpl.n	8002d86 <HAL_RCC_ClockConfig+0x42>
 8002d7c:	493c      	ldr	r1, [pc, #240]	@ (8002e70 <HAL_RCC_ClockConfig+0x12c>)
 8002d7e:	688a      	ldr	r2, [r1, #8]
 8002d80:	f442 52e0 	orr.w	r2, r2, #7168	@ 0x1c00
 8002d84:	608a      	str	r2, [r1, #8]
 8002d86:	071a      	lsls	r2, r3, #28
 8002d88:	d504      	bpl.n	8002d94 <HAL_RCC_ClockConfig+0x50>
 8002d8a:	4939      	ldr	r1, [pc, #228]	@ (8002e70 <HAL_RCC_ClockConfig+0x12c>)
 8002d8c:	688a      	ldr	r2, [r1, #8]
 8002d8e:	f442 4260 	orr.w	r2, r2, #57344	@ 0xe000
 8002d92:	608a      	str	r2, [r1, #8]
 8002d94:	4936      	ldr	r1, [pc, #216]	@ (8002e70 <HAL_RCC_ClockConfig+0x12c>)
 8002d96:	68a0      	ldr	r0, [r4, #8]
 8002d98:	688a      	ldr	r2, [r1, #8]
 8002d9a:	f022 02f0 	bic.w	r2, r2, #240	@ 0xf0
 8002d9e:	4302      	orrs	r2, r0
 8002da0:	608a      	str	r2, [r1, #8]
 8002da2:	07df      	lsls	r7, r3, #31
 8002da4:	d521      	bpl.n	8002dea <HAL_RCC_ClockConfig+0xa6>
 8002da6:	6862      	ldr	r2, [r4, #4]
 8002da8:	2a01      	cmp	r2, #1
 8002daa:	d057      	beq.n	8002e5c <HAL_RCC_ClockConfig+0x118>
 8002dac:	1e93      	subs	r3, r2, #2
 8002dae:	2b01      	cmp	r3, #1
 8002db0:	4b2f      	ldr	r3, [pc, #188]	@ (8002e70 <HAL_RCC_ClockConfig+0x12c>)
 8002db2:	681b      	ldr	r3, [r3, #0]
 8002db4:	d94d      	bls.n	8002e52 <HAL_RCC_ClockConfig+0x10e>
 8002db6:	0799      	lsls	r1, r3, #30
 8002db8:	d5d8      	bpl.n	8002d6c <HAL_RCC_ClockConfig+0x28>
 8002dba:	4e2d      	ldr	r6, [pc, #180]	@ (8002e70 <HAL_RCC_ClockConfig+0x12c>)
 8002dbc:	68b3      	ldr	r3, [r6, #8]
 8002dbe:	f023 0303 	bic.w	r3, r3, #3
 8002dc2:	4313      	orrs	r3, r2
 8002dc4:	60b3      	str	r3, [r6, #8]
 8002dc6:	f7fe fef7 	bl	8001bb8 <HAL_GetTick>
 8002dca:	f241 3888 	movw	r8, #5000	@ 0x1388
 8002dce:	4607      	mov	r7, r0
 8002dd0:	e004      	b.n	8002ddc <HAL_RCC_ClockConfig+0x98>
 8002dd2:	f7fe fef1 	bl	8001bb8 <HAL_GetTick>
 8002dd6:	1bc0      	subs	r0, r0, r7
 8002dd8:	4540      	cmp	r0, r8
 8002dda:	d844      	bhi.n	8002e66 <HAL_RCC_ClockConfig+0x122>
 8002ddc:	68b3      	ldr	r3, [r6, #8]
 8002dde:	6862      	ldr	r2, [r4, #4]
 8002de0:	f003 030c 	and.w	r3, r3, #12
 8002de4:	ebb3 0f82 	cmp.w	r3, r2, lsl #2
 8002de8:	d1f3      	bne.n	8002dd2 <HAL_RCC_ClockConfig+0x8e>
 8002dea:	4a20      	ldr	r2, [pc, #128]	@ (8002e6c <HAL_RCC_ClockConfig+0x128>)
 8002dec:	6813      	ldr	r3, [r2, #0]
 8002dee:	f003 0307 	and.w	r3, r3, #7
 8002df2:	42ab      	cmp	r3, r5
 8002df4:	d906      	bls.n	8002e04 <HAL_RCC_ClockConfig+0xc0>
 8002df6:	b2eb      	uxtb	r3, r5
 8002df8:	7013      	strb	r3, [r2, #0]
 8002dfa:	6813      	ldr	r3, [r2, #0]
 8002dfc:	f003 0307 	and.w	r3, r3, #7
 8002e00:	42ab      	cmp	r3, r5
 8002e02:	d1b3      	bne.n	8002d6c <HAL_RCC_ClockConfig+0x28>
 8002e04:	6823      	ldr	r3, [r4, #0]
 8002e06:	075a      	lsls	r2, r3, #29
 8002e08:	d506      	bpl.n	8002e18 <HAL_RCC_ClockConfig+0xd4>
 8002e0a:	4919      	ldr	r1, [pc, #100]	@ (8002e70 <HAL_RCC_ClockConfig+0x12c>)
 8002e0c:	68e0      	ldr	r0, [r4, #12]
 8002e0e:	688a      	ldr	r2, [r1, #8]
 8002e10:	f422 52e0 	bic.w	r2, r2, #7168	@ 0x1c00
 8002e14:	4302      	orrs	r2, r0
 8002e16:	608a      	str	r2, [r1, #8]
 8002e18:	071b      	lsls	r3, r3, #28
 8002e1a:	d507      	bpl.n	8002e2c <HAL_RCC_ClockConfig+0xe8>
 8002e1c:	4a14      	ldr	r2, [pc, #80]	@ (8002e70 <HAL_RCC_ClockConfig+0x12c>)
 8002e1e:	6921      	ldr	r1, [r4, #16]
 8002e20:	6893      	ldr	r3, [r2, #8]
 8002e22:	f423 4360 	bic.w	r3, r3, #57344	@ 0xe000
 8002e26:	ea43 03c1 	orr.w	r3, r3, r1, lsl #3
 8002e2a:	6093      	str	r3, [r2, #8]
 8002e2c:	f7ff ff56 	bl	8002cdc <HAL_RCC_GetSysClockFreq>
 8002e30:	4a0f      	ldr	r2, [pc, #60]	@ (8002e70 <HAL_RCC_ClockConfig+0x12c>)
 8002e32:	4c10      	ldr	r4, [pc, #64]	@ (8002e74 <HAL_RCC_ClockConfig+0x130>)
 8002e34:	6892      	ldr	r2, [r2, #8]
 8002e36:	4910      	ldr	r1, [pc, #64]	@ (8002e78 <HAL_RCC_ClockConfig+0x134>)
 8002e38:	f3c2 1203 	ubfx	r2, r2, #4, #4
 8002e3c:	4603      	mov	r3, r0
 8002e3e:	5ca2      	ldrb	r2, [r4, r2]
 8002e40:	480e      	ldr	r0, [pc, #56]	@ (8002e7c <HAL_RCC_ClockConfig+0x138>)
 8002e42:	40d3      	lsrs	r3, r2
 8002e44:	6800      	ldr	r0, [r0, #0]
 8002e46:	600b      	str	r3, [r1, #0]
 8002e48:	f7fe fe78 	bl	8001b3c <HAL_InitTick>
 8002e4c:	2000      	movs	r0, #0
 8002e4e:	e8bd 81f0 	ldmia.w	sp!, {r4, r5, r6, r7, r8, pc}
 8002e52:	0198      	lsls	r0, r3, #6
 8002e54:	d4b1      	bmi.n	8002dba <HAL_RCC_ClockConfig+0x76>
 8002e56:	e789      	b.n	8002d6c <HAL_RCC_ClockConfig+0x28>
 8002e58:	2001      	movs	r0, #1
 8002e5a:	4770      	bx	lr
 8002e5c:	4b04      	ldr	r3, [pc, #16]	@ (8002e70 <HAL_RCC_ClockConfig+0x12c>)
 8002e5e:	681b      	ldr	r3, [r3, #0]
 8002e60:	039e      	lsls	r6, r3, #14
 8002e62:	d4aa      	bmi.n	8002dba <HAL_RCC_ClockConfig+0x76>
 8002e64:	e782      	b.n	8002d6c <HAL_RCC_ClockConfig+0x28>
 8002e66:	2003      	movs	r0, #3
 8002e68:	e781      	b.n	8002d6e <HAL_RCC_ClockConfig+0x2a>
 8002e6a:	bf00      	nop
 8002e6c:	40023c00 	.word	0x40023c00
 8002e70:	40023800 	.word	0x40023800
 8002e74:	080059c0 	.word	0x080059c0
 8002e78:	20000008 	.word	0x20000008
 8002e7c:	20000004 	.word	0x20000004

08002e80 <HAL_TIM_Base_Init>:
 8002e80:	2800      	cmp	r0, #0
 8002e82:	f000 808f 	beq.w	8002fa4 <HAL_TIM_Base_Init+0x124>
 8002e86:	b538      	push	{r3, r4, r5, lr}
 8002e88:	f890 303d 	ldrb.w	r3, [r0, #61]	@ 0x3d
 8002e8c:	4604      	mov	r4, r0
 8002e8e:	f003 02ff 	and.w	r2, r3, #255	@ 0xff
 8002e92:	2b00      	cmp	r3, #0
 8002e94:	f000 8081 	beq.w	8002f9a <HAL_TIM_Base_Init+0x11a>
 8002e98:	6822      	ldr	r2, [r4, #0]
 8002e9a:	4943      	ldr	r1, [pc, #268]	@ (8002fa8 <HAL_TIM_Base_Init+0x128>)
 8002e9c:	2302      	movs	r3, #2
 8002e9e:	f884 303d 	strb.w	r3, [r4, #61]	@ 0x3d
 8002ea2:	428a      	cmp	r2, r1
 8002ea4:	6813      	ldr	r3, [r2, #0]
 8002ea6:	d064      	beq.n	8002f72 <HAL_TIM_Base_Init+0xf2>
 8002ea8:	f1b2 4f80 	cmp.w	r2, #1073741824	@ 0x40000000
 8002eac:	d030      	beq.n	8002f10 <HAL_TIM_Base_Init+0x90>
 8002eae:	f5a1 417c 	sub.w	r1, r1, #64512	@ 0xfc00
 8002eb2:	428a      	cmp	r2, r1
 8002eb4:	d02c      	beq.n	8002f10 <HAL_TIM_Base_Init+0x90>
 8002eb6:	f501 6180 	add.w	r1, r1, #1024	@ 0x400
 8002eba:	428a      	cmp	r2, r1
 8002ebc:	d028      	beq.n	8002f10 <HAL_TIM_Base_Init+0x90>
 8002ebe:	f501 6180 	add.w	r1, r1, #1024	@ 0x400
 8002ec2:	428a      	cmp	r2, r1
 8002ec4:	d024      	beq.n	8002f10 <HAL_TIM_Base_Init+0x90>
 8002ec6:	f501 4178 	add.w	r1, r1, #63488	@ 0xf800
 8002eca:	428a      	cmp	r2, r1
 8002ecc:	d051      	beq.n	8002f72 <HAL_TIM_Base_Init+0xf2>
 8002ece:	f501 5170 	add.w	r1, r1, #15360	@ 0x3c00
 8002ed2:	428a      	cmp	r2, r1
 8002ed4:	d020      	beq.n	8002f18 <HAL_TIM_Base_Init+0x98>
 8002ed6:	4935      	ldr	r1, [pc, #212]	@ (8002fac <HAL_TIM_Base_Init+0x12c>)
 8002ed8:	428a      	cmp	r2, r1
 8002eda:	d01d      	beq.n	8002f18 <HAL_TIM_Base_Init+0x98>
 8002edc:	f501 6180 	add.w	r1, r1, #1024	@ 0x400
 8002ee0:	428a      	cmp	r2, r1
 8002ee2:	d019      	beq.n	8002f18 <HAL_TIM_Base_Init+0x98>
 8002ee4:	f5a1 3198 	sub.w	r1, r1, #77824	@ 0x13000
 8002ee8:	428a      	cmp	r2, r1
 8002eea:	d015      	beq.n	8002f18 <HAL_TIM_Base_Init+0x98>
 8002eec:	f501 6180 	add.w	r1, r1, #1024	@ 0x400
 8002ef0:	428a      	cmp	r2, r1
 8002ef2:	d011      	beq.n	8002f18 <HAL_TIM_Base_Init+0x98>
 8002ef4:	f501 6180 	add.w	r1, r1, #1024	@ 0x400
 8002ef8:	428a      	cmp	r2, r1
 8002efa:	d00d      	beq.n	8002f18 <HAL_TIM_Base_Init+0x98>
 8002efc:	69a5      	ldr	r5, [r4, #24]
 8002efe:	6861      	ldr	r1, [r4, #4]
 8002f00:	68e0      	ldr	r0, [r4, #12]
 8002f02:	f023 0380 	bic.w	r3, r3, #128	@ 0x80
 8002f06:	432b      	orrs	r3, r5
 8002f08:	6013      	str	r3, [r2, #0]
 8002f0a:	62d0      	str	r0, [r2, #44]	@ 0x2c
 8002f0c:	6291      	str	r1, [r2, #40]	@ 0x28
 8002f0e:	e010      	b.n	8002f32 <HAL_TIM_Base_Init+0xb2>
 8002f10:	68a1      	ldr	r1, [r4, #8]
 8002f12:	f023 0370 	bic.w	r3, r3, #112	@ 0x70
 8002f16:	430b      	orrs	r3, r1
 8002f18:	6920      	ldr	r0, [r4, #16]
 8002f1a:	69a1      	ldr	r1, [r4, #24]
 8002f1c:	f423 7340 	bic.w	r3, r3, #768	@ 0x300
 8002f20:	4303      	orrs	r3, r0
 8002f22:	f023 0380 	bic.w	r3, r3, #128	@ 0x80
 8002f26:	68e0      	ldr	r0, [r4, #12]
 8002f28:	430b      	orrs	r3, r1
 8002f2a:	6861      	ldr	r1, [r4, #4]
 8002f2c:	6013      	str	r3, [r2, #0]
 8002f2e:	62d0      	str	r0, [r2, #44]	@ 0x2c
 8002f30:	6291      	str	r1, [r2, #40]	@ 0x28
 8002f32:	2301      	movs	r3, #1
 8002f34:	6153      	str	r3, [r2, #20]
 8002f36:	6913      	ldr	r3, [r2, #16]
 8002f38:	07db      	lsls	r3, r3, #31
 8002f3a:	d503      	bpl.n	8002f44 <HAL_TIM_Base_Init+0xc4>
 8002f3c:	6913      	ldr	r3, [r2, #16]
 8002f3e:	f023 0301 	bic.w	r3, r3, #1
 8002f42:	6113      	str	r3, [r2, #16]
 8002f44:	2301      	movs	r3, #1
 8002f46:	f884 3046 	strb.w	r3, [r4, #70]	@ 0x46
 8002f4a:	f884 303e 	strb.w	r3, [r4, #62]	@ 0x3e
 8002f4e:	f884 303f 	strb.w	r3, [r4, #63]	@ 0x3f
 8002f52:	f884 3040 	strb.w	r3, [r4, #64]	@ 0x40
 8002f56:	f884 3041 	strb.w	r3, [r4, #65]	@ 0x41
 8002f5a:	f884 3042 	strb.w	r3, [r4, #66]	@ 0x42
 8002f5e:	f884 3043 	strb.w	r3, [r4, #67]	@ 0x43
 8002f62:	f884 3044 	strb.w	r3, [r4, #68]	@ 0x44
 8002f66:	f884 3045 	strb.w	r3, [r4, #69]	@ 0x45
 8002f6a:	f884 303d 	strb.w	r3, [r4, #61]	@ 0x3d
 8002f6e:	2000      	movs	r0, #0
 8002f70:	bd38      	pop	{r3, r4, r5, pc}
 8002f72:	68a0      	ldr	r0, [r4, #8]
 8002f74:	6921      	ldr	r1, [r4, #16]
 8002f76:	f023 0370 	bic.w	r3, r3, #112	@ 0x70
 8002f7a:	4303      	orrs	r3, r0
 8002f7c:	f423 7340 	bic.w	r3, r3, #768	@ 0x300
 8002f80:	430b      	orrs	r3, r1
 8002f82:	69a1      	ldr	r1, [r4, #24]
 8002f84:	f023 0380 	bic.w	r3, r3, #128	@ 0x80
 8002f88:	430b      	orrs	r3, r1
 8002f8a:	6013      	str	r3, [r2, #0]
 8002f8c:	68e3      	ldr	r3, [r4, #12]
 8002f8e:	62d3      	str	r3, [r2, #44]	@ 0x2c
 8002f90:	6863      	ldr	r3, [r4, #4]
 8002f92:	6293      	str	r3, [r2, #40]	@ 0x28
 8002f94:	6963      	ldr	r3, [r4, #20]
 8002f96:	6313      	str	r3, [r2, #48]	@ 0x30
 8002f98:	e7cb      	b.n	8002f32 <HAL_TIM_Base_Init+0xb2>
 8002f9a:	f880 203c 	strb.w	r2, [r0, #60]	@ 0x3c
 8002f9e:	f7fe fd45 	bl	8001a2c <HAL_TIM_Base_MspInit>
 8002fa2:	e779      	b.n	8002e98 <HAL_TIM_Base_Init+0x18>
 8002fa4:	2001      	movs	r0, #1
 8002fa6:	4770      	bx	lr
 8002fa8:	40010000 	.word	0x40010000
 8002fac:	40014400 	.word	0x40014400

08002fb0 <HAL_TIM_Base_Start>:
 8002fb0:	f890 303d 	ldrb.w	r3, [r0, #61]	@ 0x3d
 8002fb4:	2b01      	cmp	r3, #1
 8002fb6:	d12c      	bne.n	8003012 <HAL_TIM_Base_Start+0x62>
 8002fb8:	6803      	ldr	r3, [r0, #0]
 8002fba:	4a17      	ldr	r2, [pc, #92]	@ (8003018 <HAL_TIM_Base_Start+0x68>)
 8002fbc:	2102      	movs	r1, #2
 8002fbe:	4293      	cmp	r3, r2
 8002fc0:	f880 103d 	strb.w	r1, [r0, #61]	@ 0x3d
 8002fc4:	d01a      	beq.n	8002ffc <HAL_TIM_Base_Start+0x4c>
 8002fc6:	f1b3 4f80 	cmp.w	r3, #1073741824	@ 0x40000000
 8002fca:	d017      	beq.n	8002ffc <HAL_TIM_Base_Start+0x4c>
 8002fcc:	f5a2 427c 	sub.w	r2, r2, #64512	@ 0xfc00
 8002fd0:	4293      	cmp	r3, r2
 8002fd2:	d013      	beq.n	8002ffc <HAL_TIM_Base_Start+0x4c>
 8002fd4:	f502 6280 	add.w	r2, r2, #1024	@ 0x400
 8002fd8:	4293      	cmp	r3, r2
 8002fda:	d00f      	beq.n	8002ffc <HAL_TIM_Base_Start+0x4c>
 8002fdc:	f502 6280 	add.w	r2, r2, #1024	@ 0x400
 8002fe0:	4293      	cmp	r3, r2
 8002fe2:	d00b      	beq.n	8002ffc <HAL_TIM_Base_Start+0x4c>
 8002fe4:	f502 4278 	add.w	r2, r2, #63488	@ 0xf800
 8002fe8:	4293      	cmp	r3, r2
 8002fea:	d007      	beq.n	8002ffc <HAL_TIM_Base_Start+0x4c>
 8002fec:	f502 5270 	add.w	r2, r2, #15360	@ 0x3c00
 8002ff0:	4293      	cmp	r3, r2
 8002ff2:	d003      	beq.n	8002ffc <HAL_TIM_Base_Start+0x4c>
 8002ff4:	f5a2 3294 	sub.w	r2, r2, #75776	@ 0x12800
 8002ff8:	4293      	cmp	r3, r2
 8002ffa:	d104      	bne.n	8003006 <HAL_TIM_Base_Start+0x56>
 8002ffc:	689a      	ldr	r2, [r3, #8]
 8002ffe:	f002 0207 	and.w	r2, r2, #7
 8003002:	2a06      	cmp	r2, #6
 8003004:	d003      	beq.n	800300e <HAL_TIM_Base_Start+0x5e>
 8003006:	681a      	ldr	r2, [r3, #0]
 8003008:	f042 0201 	orr.w	r2, r2, #1
 800300c:	601a      	str	r2, [r3, #0]
 800300e:	2000      	movs	r0, #0
 8003010:	4770      	bx	lr
 8003012:	2001      	movs	r0, #1
 8003014:	4770      	bx	lr
 8003016:	bf00      	nop
 8003018:	40010000 	.word	0x40010000

0800301c <HAL_TIM_PWM_MspInit>:
 800301c:	4770      	bx	lr
 800301e:	bf00      	nop

08003020 <HAL_TIM_PWM_Init>:
 8003020:	2800      	cmp	r0, #0
 8003022:	f000 808f 	beq.w	8003144 <HAL_TIM_PWM_Init+0x124>
 8003026:	b538      	push	{r3, r4, r5, lr}
 8003028:	f890 303d 	ldrb.w	r3, [r0, #61]	@ 0x3d
 800302c:	4604      	mov	r4, r0
 800302e:	f003 02ff 	and.w	r2, r3, #255	@ 0xff
 8003032:	2b00      	cmp	r3, #0
 8003034:	f000 8081 	beq.w	800313a <HAL_TIM_PWM_Init+0x11a>
 8003038:	6822      	ldr	r2, [r4, #0]
 800303a:	4943      	ldr	r1, [pc, #268]	@ (8003148 <HAL_TIM_PWM_Init+0x128>)
 800303c:	2302      	movs	r3, #2
 800303e:	f884 303d 	strb.w	r3, [r4, #61]	@ 0x3d
 8003042:	428a      	cmp	r2, r1
 8003044:	6813      	ldr	r3, [r2, #0]
 8003046:	d064      	beq.n	8003112 <HAL_TIM_PWM_Init+0xf2>
 8003048:	f1b2 4f80 	cmp.w	r2, #1073741824	@ 0x40000000
 800304c:	d030      	beq.n	80030b0 <HAL_TIM_PWM_Init+0x90>
 800304e:	f5a1 417c 	sub.w	r1, r1, #64512	@ 0xfc00
 8003052:	428a      	cmp	r2, r1
 8003054:	d02c      	beq.n	80030b0 <HAL_TIM_PWM_Init+0x90>
 8003056:	f501 6180 	add.w	r1, r1, #1024	@ 0x400
 800305a:	428a      	cmp	r2, r1
 800305c:	d028      	beq.n	80030b0 <HAL_TIM_PWM_Init+0x90>
 800305e:	f501 6180 	add.w	r1, r1, #1024	@ 0x400
 8003062:	428a      	cmp	r2, r1
 8003064:	d024      	beq.n	80030b0 <HAL_TIM_PWM_Init+0x90>
 8003066:	f501 4178 	add.w	r1, r1, #63488	@ 0xf800
 800306a:	428a      	cmp	r2, r1
 800306c:	d051      	beq.n	8003112 <HAL_TIM_PWM_Init+0xf2>
 800306e:	f501 5170 	add.w	r1, r1, #15360	@ 0x3c00
 8003072:	428a      	cmp	r2, r1
 8003074:	d020      	beq.n	80030b8 <HAL_TIM_PWM_Init+0x98>
 8003076:	4935      	ldr	r1, [pc, #212]	@ (800314c <HAL_TIM_PWM_Init+0x12c>)
 8003078:	428a      	cmp	r2, r1
 800307a:	d01d      	beq.n	80030b8 <HAL_TIM_PWM_Init+0x98>
 800307c:	f501 6180 	add.w	r1, r1, #1024	@ 0x400
 8003080:	428a      	cmp	r2, r1
 8003082:	d019      	beq.n	80030b8 <HAL_TIM_PWM_Init+0x98>
 8003084:	f5a1 3198 	sub.w	r1, r1, #77824	@ 0x13000
 8003088:	428a      	cmp	r2, r1
 800308a:	d015      	beq.n	80030b8 <HAL_TIM_PWM_Init+0x98>
 800308c:	f501 6180 	add.w	r1, r1, #1024	@ 0x400
 8003090:	428a      	cmp	r2, r1
 8003092:	d011      	beq.n	80030b8 <HAL_TIM_PWM_Init+0x98>
 8003094:	f501 6180 	add.w	r1, r1, #1024	@ 0x400
 8003098:	428a      	cmp	r2, r1
 800309a:	d00d      	beq.n	80030b8 <HAL_TIM_PWM_Init+0x98>
 800309c:	69a5      	ldr	r5, [r4, #24]
 800309e:	6861      	ldr	r1, [r4, #4]
 80030a0:	68e0      	ldr	r0, [r4, #12]
 80030a2:	f023 0380 	bic.w	r3, r3, #128	@ 0x80
 80030a6:	432b      	orrs	r3, r5
 80030a8:	6013      	str	r3, [r2, #0]
 80030aa:	62d0      	str	r0, [r2, #44]	@ 0x2c
 80030ac:	6291      	str	r1, [r2, #40]	@ 0x28
 80030ae:	e010      	b.n	80030d2 <HAL_TIM_PWM_Init+0xb2>
 80030b0:	68a1      	ldr	r1, [r4, #8]
 80030b2:	f023 0370 	bic.w	r3, r3, #112	@ 0x70
 80030b6:	430b      	orrs	r3, r1
 80030b8:	6920      	ldr	r0, [r4, #16]
 80030ba:	69a1      	ldr	r1, [r4, #24]
 80030bc:	f423 7340 	bic.w	r3, r3, #768	@ 0x300
 80030c0:	4303      	orrs	r3, r0
 80030c2:	f023 0380 	bic.w	r3, r3, #128	@ 0x80
 80030c6:	68e0      	ldr	r0, [r4, #12]
 80030c8:	430b      	orrs	r3, r1
 80030ca:	6861      	ldr	r1, [r4, #4]
 80030cc:	6013      	str	r3, [r2, #0]
 80030ce:	62d0      	str	r0, [r2, #44]	@ 0x2c
 80030d0:	6291      	str	r1, [r2, #40]	@ 0x28
 80030d2:	2301      	movs	r3, #1
 80030d4:	6153      	str	r3, [r2, #20]
 80030d6:	6913      	ldr	r3, [r2, #16]
 80030d8:	07db      	lsls	r3, r3, #31
 80030da:	d503      	bpl.n	80030e4 <HAL_TIM_PWM_Init+0xc4>
 80030dc:	6913      	ldr	r3, [r2, #16]
 80030de:	f023 0301 	bic.w	r3, r3, #1
 80030e2:	6113      	str	r3, [r2, #16]
 80030e4:	2301      	movs	r3, #1
 80030e6:	f884 3046 	strb.w	r3, [r4, #70]	@ 0x46
 80030ea:	f884 303e 	strb.w	r3, [r4, #62]	@ 0x3e
 80030ee:	f884 303f 	strb.w	r3, [r4, #63]	@ 0x3f
 80030f2:	f884 3040 	strb.w	r3, [r4, #64]	@ 0x40
 80030f6:	f884 3041 	strb.w	r3, [r4, #65]	@ 0x41
 80030fa:	f884 3042 	strb.w	r3, [r4, #66]	@ 0x42
 80030fe:	f884 3043 	strb.w	r3, [r4, #67]	@ 0x43
 8003102:	f884 3044 	strb.w	r3, [r4, #68]	@ 0x44
 8003106:	f884 3045 	strb.w	r3, [r4, #69]	@ 0x45
 800310a:	f884 303d 	strb.w	r3, [r4, #61]	@ 0x3d
 800310e:	2000      	movs	r0, #0
 8003110:	bd38      	pop	{r3, r4, r5, pc}
 8003112:	68a0      	ldr	r0, [r4, #8]
 8003114:	6921      	ldr	r1, [r4, #16]
 8003116:	f023 0370 	bic.w	r3, r3, #112	@ 0x70
 800311a:	4303      	orrs	r3, r0
 800311c:	f423 7340 	bic.w	r3, r3, #768	@ 0x300
 8003120:	430b      	orrs	r3, r1
 8003122:	69a1      	ldr	r1, [r4, #24]
 8003124:	f023 0380 	bic.w	r3, r3, #128	@ 0x80
 8003128:	430b      	orrs	r3, r1
 800312a:	6013      	str	r3, [r2, #0]
 800312c:	68e3      	ldr	r3, [r4, #12]
 800312e:	62d3      	str	r3, [r2, #44]	@ 0x2c
 8003130:	6863      	ldr	r3, [r4, #4]
 8003132:	6293      	str	r3, [r2, #40]	@ 0x28
 8003134:	6963      	ldr	r3, [r4, #20]
 8003136:	6313      	str	r3, [r2, #48]	@ 0x30
 8003138:	e7cb      	b.n	80030d2 <HAL_TIM_PWM_Init+0xb2>
 800313a:	f880 203c 	strb.w	r2, [r0, #60]	@ 0x3c
 800313e:	f7ff ff6d 	bl	800301c <HAL_TIM_PWM_MspInit>
 8003142:	e779      	b.n	8003038 <HAL_TIM_PWM_Init+0x18>
 8003144:	2001      	movs	r0, #1
 8003146:	4770      	bx	lr
 8003148:	40010000 	.word	0x40010000
 800314c:	40014400 	.word	0x40014400

08003150 <HAL_TIM_PWM_Start>:
 8003150:	2900      	cmp	r1, #0
 8003152:	d139      	bne.n	80031c8 <HAL_TIM_PWM_Start+0x78>
 8003154:	f890 303e 	ldrb.w	r3, [r0, #62]	@ 0x3e
 8003158:	2b01      	cmp	r3, #1
 800315a:	d141      	bne.n	80031e0 <HAL_TIM_PWM_Start+0x90>
 800315c:	2302      	movs	r3, #2
 800315e:	f880 303e 	strb.w	r3, [r0, #62]	@ 0x3e
 8003162:	6803      	ldr	r3, [r0, #0]
 8003164:	f001 011f 	and.w	r1, r1, #31
 8003168:	6a18      	ldr	r0, [r3, #32]
 800316a:	2201      	movs	r2, #1
 800316c:	408a      	lsls	r2, r1
 800316e:	ea20 0002 	bic.w	r0, r0, r2
 8003172:	6218      	str	r0, [r3, #32]
 8003174:	6a18      	ldr	r0, [r3, #32]
 8003176:	4926      	ldr	r1, [pc, #152]	@ (8003210 <HAL_TIM_PWM_Start+0xc0>)
 8003178:	4302      	orrs	r2, r0
 800317a:	428b      	cmp	r3, r1
 800317c:	621a      	str	r2, [r3, #32]
 800317e:	d031      	beq.n	80031e4 <HAL_TIM_PWM_Start+0x94>
 8003180:	4a24      	ldr	r2, [pc, #144]	@ (8003214 <HAL_TIM_PWM_Start+0xc4>)
 8003182:	4293      	cmp	r3, r2
 8003184:	d02e      	beq.n	80031e4 <HAL_TIM_PWM_Start+0x94>
 8003186:	f1b3 4f80 	cmp.w	r3, #1073741824	@ 0x40000000
 800318a:	d012      	beq.n	80031b2 <HAL_TIM_PWM_Start+0x62>
 800318c:	4a22      	ldr	r2, [pc, #136]	@ (8003218 <HAL_TIM_PWM_Start+0xc8>)
 800318e:	4293      	cmp	r3, r2
 8003190:	d00f      	beq.n	80031b2 <HAL_TIM_PWM_Start+0x62>
 8003192:	f502 6280 	add.w	r2, r2, #1024	@ 0x400
 8003196:	4293      	cmp	r3, r2
 8003198:	d00b      	beq.n	80031b2 <HAL_TIM_PWM_Start+0x62>
 800319a:	f502 6280 	add.w	r2, r2, #1024	@ 0x400
 800319e:	4293      	cmp	r3, r2
 80031a0:	d007      	beq.n	80031b2 <HAL_TIM_PWM_Start+0x62>
 80031a2:	f502 329a 	add.w	r2, r2, #78848	@ 0x13400
 80031a6:	4293      	cmp	r3, r2
 80031a8:	d003      	beq.n	80031b2 <HAL_TIM_PWM_Start+0x62>
 80031aa:	f5a2 3294 	sub.w	r2, r2, #75776	@ 0x12800
 80031ae:	4293      	cmp	r3, r2
 80031b0:	d104      	bne.n	80031bc <HAL_TIM_PWM_Start+0x6c>
 80031b2:	689a      	ldr	r2, [r3, #8]
 80031b4:	f002 0207 	and.w	r2, r2, #7
 80031b8:	2a06      	cmp	r2, #6
 80031ba:	d003      	beq.n	80031c4 <HAL_TIM_PWM_Start+0x74>
 80031bc:	681a      	ldr	r2, [r3, #0]
 80031be:	f042 0201 	orr.w	r2, r2, #1
 80031c2:	601a      	str	r2, [r3, #0]
 80031c4:	2000      	movs	r0, #0
 80031c6:	4770      	bx	lr
 80031c8:	2904      	cmp	r1, #4
 80031ca:	d010      	beq.n	80031ee <HAL_TIM_PWM_Start+0x9e>
 80031cc:	2908      	cmp	r1, #8
 80031ce:	d016      	beq.n	80031fe <HAL_TIM_PWM_Start+0xae>
 80031d0:	f890 3041 	ldrb.w	r3, [r0, #65]	@ 0x41
 80031d4:	2b01      	cmp	r3, #1
 80031d6:	d103      	bne.n	80031e0 <HAL_TIM_PWM_Start+0x90>
 80031d8:	2302      	movs	r3, #2
 80031da:	f880 3041 	strb.w	r3, [r0, #65]	@ 0x41
 80031de:	e7c0      	b.n	8003162 <HAL_TIM_PWM_Start+0x12>
 80031e0:	2001      	movs	r0, #1
 80031e2:	4770      	bx	lr
 80031e4:	6c5a      	ldr	r2, [r3, #68]	@ 0x44
 80031e6:	f442 4200 	orr.w	r2, r2, #32768	@ 0x8000
 80031ea:	645a      	str	r2, [r3, #68]	@ 0x44
 80031ec:	e7e1      	b.n	80031b2 <HAL_TIM_PWM_Start+0x62>
 80031ee:	f890 303f 	ldrb.w	r3, [r0, #63]	@ 0x3f
 80031f2:	2b01      	cmp	r3, #1
 80031f4:	d1f4      	bne.n	80031e0 <HAL_TIM_PWM_Start+0x90>
 80031f6:	2302      	movs	r3, #2
 80031f8:	f880 303f 	strb.w	r3, [r0, #63]	@ 0x3f
 80031fc:	e7b1      	b.n	8003162 <HAL_TIM_PWM_Start+0x12>
 80031fe:	f890 3040 	ldrb.w	r3, [r0, #64]	@ 0x40
 8003202:	2b01      	cmp	r3, #1
 8003204:	d1ec      	bne.n	80031e0 <HAL_TIM_PWM_Start+0x90>
 8003206:	2302      	movs	r3, #2
 8003208:	f880 3040 	strb.w	r3, [r0, #64]	@ 0x40
 800320c:	e7a9      	b.n	8003162 <HAL_TIM_PWM_Start+0x12>
 800320e:	bf00      	nop
 8003210:	40010000 	.word	0x40010000
 8003214:	40010400 	.word	0x40010400
 8003218:	40000400 	.word	0x40000400

0800321c <HAL_TIM_PWM_ConfigChannel>:
 800321c:	f890 303c 	ldrb.w	r3, [r0, #60]	@ 0x3c
 8003220:	2b01      	cmp	r3, #1
 8003222:	f000 80c6 	beq.w	80033b2 <HAL_TIM_PWM_ConfigChannel+0x196>
 8003226:	2301      	movs	r3, #1
 8003228:	b570      	push	{r4, r5, r6, lr}
 800322a:	4684      	mov	ip, r0
 800322c:	f880 303c 	strb.w	r3, [r0, #60]	@ 0x3c
 8003230:	2a0c      	cmp	r2, #12
 8003232:	d808      	bhi.n	8003246 <HAL_TIM_PWM_ConfigChannel+0x2a>
 8003234:	e8df f002 	tbb	[pc, r2]
 8003238:	0707073e 	.word	0x0707073e
 800323c:	07070767 	.word	0x07070767
 8003240:	07070793 	.word	0x07070793
 8003244:	0c          	.byte	0x0c
 8003245:	00          	.byte	0x00
 8003246:	2300      	movs	r3, #0
 8003248:	f88c 303c 	strb.w	r3, [ip, #60]	@ 0x3c
 800324c:	2001      	movs	r0, #1
 800324e:	bd70      	pop	{r4, r5, r6, pc}
 8003250:	6803      	ldr	r3, [r0, #0]
 8003252:	680d      	ldr	r5, [r1, #0]
 8003254:	6a1a      	ldr	r2, [r3, #32]
 8003256:	6a18      	ldr	r0, [r3, #32]
 8003258:	f420 5080 	bic.w	r0, r0, #4096	@ 0x1000
 800325c:	6218      	str	r0, [r3, #32]
 800325e:	685c      	ldr	r4, [r3, #4]
 8003260:	69d8      	ldr	r0, [r3, #28]
 8003262:	f420 40e6 	bic.w	r0, r0, #29440	@ 0x7300
 8003266:	ea40 2005 	orr.w	r0, r0, r5, lsl #8
 800326a:	688d      	ldr	r5, [r1, #8]
 800326c:	f422 5200 	bic.w	r2, r2, #8192	@ 0x2000
 8003270:	ea42 3205 	orr.w	r2, r2, r5, lsl #12
 8003274:	4d6a      	ldr	r5, [pc, #424]	@ (8003420 <HAL_TIM_PWM_ConfigChannel+0x204>)
 8003276:	42ab      	cmp	r3, r5
 8003278:	f000 80bc 	beq.w	80033f4 <HAL_TIM_PWM_ConfigChannel+0x1d8>
 800327c:	f505 6580 	add.w	r5, r5, #1024	@ 0x400
 8003280:	42ab      	cmp	r3, r5
 8003282:	f000 80b7 	beq.w	80033f4 <HAL_TIM_PWM_ConfigChannel+0x1d8>
 8003286:	605c      	str	r4, [r3, #4]
 8003288:	61d8      	str	r0, [r3, #28]
 800328a:	6848      	ldr	r0, [r1, #4]
 800328c:	6418      	str	r0, [r3, #64]	@ 0x40
 800328e:	621a      	str	r2, [r3, #32]
 8003290:	69da      	ldr	r2, [r3, #28]
 8003292:	6909      	ldr	r1, [r1, #16]
 8003294:	f442 6200 	orr.w	r2, r2, #2048	@ 0x800
 8003298:	61da      	str	r2, [r3, #28]
 800329a:	69da      	ldr	r2, [r3, #28]
 800329c:	f422 6280 	bic.w	r2, r2, #1024	@ 0x400
 80032a0:	61da      	str	r2, [r3, #28]
 80032a2:	69da      	ldr	r2, [r3, #28]
 80032a4:	ea42 2201 	orr.w	r2, r2, r1, lsl #8
 80032a8:	61da      	str	r2, [r3, #28]
 80032aa:	2300      	movs	r3, #0
 80032ac:	f88c 303c 	strb.w	r3, [ip, #60]	@ 0x3c
 80032b0:	2000      	movs	r0, #0
 80032b2:	bd70      	pop	{r4, r5, r6, pc}
 80032b4:	6803      	ldr	r3, [r0, #0]
 80032b6:	680d      	ldr	r5, [r1, #0]
 80032b8:	6a1a      	ldr	r2, [r3, #32]
 80032ba:	6a18      	ldr	r0, [r3, #32]
 80032bc:	f020 0001 	bic.w	r0, r0, #1
 80032c0:	6218      	str	r0, [r3, #32]
 80032c2:	685c      	ldr	r4, [r3, #4]
 80032c4:	6998      	ldr	r0, [r3, #24]
 80032c6:	f020 0073 	bic.w	r0, r0, #115	@ 0x73
 80032ca:	4328      	orrs	r0, r5
 80032cc:	688d      	ldr	r5, [r1, #8]
 80032ce:	f022 0202 	bic.w	r2, r2, #2
 80032d2:	432a      	orrs	r2, r5
 80032d4:	4d52      	ldr	r5, [pc, #328]	@ (8003420 <HAL_TIM_PWM_ConfigChannel+0x204>)
 80032d6:	42ab      	cmp	r3, r5
 80032d8:	d06d      	beq.n	80033b6 <HAL_TIM_PWM_ConfigChannel+0x19a>
 80032da:	f505 6580 	add.w	r5, r5, #1024	@ 0x400
 80032de:	42ab      	cmp	r3, r5
 80032e0:	d069      	beq.n	80033b6 <HAL_TIM_PWM_ConfigChannel+0x19a>
 80032e2:	605c      	str	r4, [r3, #4]
 80032e4:	6198      	str	r0, [r3, #24]
 80032e6:	6848      	ldr	r0, [r1, #4]
 80032e8:	6358      	str	r0, [r3, #52]	@ 0x34
 80032ea:	621a      	str	r2, [r3, #32]
 80032ec:	699a      	ldr	r2, [r3, #24]
 80032ee:	6909      	ldr	r1, [r1, #16]
 80032f0:	f042 0208 	orr.w	r2, r2, #8
 80032f4:	619a      	str	r2, [r3, #24]
 80032f6:	699a      	ldr	r2, [r3, #24]
 80032f8:	f022 0204 	bic.w	r2, r2, #4
 80032fc:	619a      	str	r2, [r3, #24]
 80032fe:	699a      	ldr	r2, [r3, #24]
 8003300:	430a      	orrs	r2, r1
 8003302:	619a      	str	r2, [r3, #24]
 8003304:	e7d1      	b.n	80032aa <HAL_TIM_PWM_ConfigChannel+0x8e>
 8003306:	6803      	ldr	r3, [r0, #0]
 8003308:	680d      	ldr	r5, [r1, #0]
 800330a:	6a1a      	ldr	r2, [r3, #32]
 800330c:	6a18      	ldr	r0, [r3, #32]
 800330e:	f020 0010 	bic.w	r0, r0, #16
 8003312:	6218      	str	r0, [r3, #32]
 8003314:	685c      	ldr	r4, [r3, #4]
 8003316:	6998      	ldr	r0, [r3, #24]
 8003318:	f420 40e6 	bic.w	r0, r0, #29440	@ 0x7300
 800331c:	ea40 2005 	orr.w	r0, r0, r5, lsl #8
 8003320:	688d      	ldr	r5, [r1, #8]
 8003322:	f022 0220 	bic.w	r2, r2, #32
 8003326:	ea42 1205 	orr.w	r2, r2, r5, lsl #4
 800332a:	4d3d      	ldr	r5, [pc, #244]	@ (8003420 <HAL_TIM_PWM_ConfigChannel+0x204>)
 800332c:	42ab      	cmp	r3, r5
 800332e:	d051      	beq.n	80033d4 <HAL_TIM_PWM_ConfigChannel+0x1b8>
 8003330:	f505 6580 	add.w	r5, r5, #1024	@ 0x400
 8003334:	42ab      	cmp	r3, r5
 8003336:	d04d      	beq.n	80033d4 <HAL_TIM_PWM_ConfigChannel+0x1b8>
 8003338:	605c      	str	r4, [r3, #4]
 800333a:	6198      	str	r0, [r3, #24]
 800333c:	6848      	ldr	r0, [r1, #4]
 800333e:	6398      	str	r0, [r3, #56]	@ 0x38
 8003340:	621a      	str	r2, [r3, #32]
 8003342:	699a      	ldr	r2, [r3, #24]
 8003344:	6909      	ldr	r1, [r1, #16]
 8003346:	f442 6200 	orr.w	r2, r2, #2048	@ 0x800
 800334a:	619a      	str	r2, [r3, #24]
 800334c:	699a      	ldr	r2, [r3, #24]
 800334e:	f422 6280 	bic.w	r2, r2, #1024	@ 0x400
 8003352:	619a      	str	r2, [r3, #24]
 8003354:	699a      	ldr	r2, [r3, #24]
 8003356:	ea42 2201 	orr.w	r2, r2, r1, lsl #8
 800335a:	619a      	str	r2, [r3, #24]
 800335c:	e7a5      	b.n	80032aa <HAL_TIM_PWM_ConfigChannel+0x8e>
 800335e:	6803      	ldr	r3, [r0, #0]
 8003360:	680d      	ldr	r5, [r1, #0]
 8003362:	6a1a      	ldr	r2, [r3, #32]
 8003364:	6a18      	ldr	r0, [r3, #32]
 8003366:	f420 7080 	bic.w	r0, r0, #256	@ 0x100
 800336a:	6218      	str	r0, [r3, #32]
 800336c:	685c      	ldr	r4, [r3, #4]
 800336e:	69d8      	ldr	r0, [r3, #28]
 8003370:	f020 0073 	bic.w	r0, r0, #115	@ 0x73
 8003374:	4328      	orrs	r0, r5
 8003376:	688d      	ldr	r5, [r1, #8]
 8003378:	f422 7200 	bic.w	r2, r2, #512	@ 0x200
 800337c:	ea42 2205 	orr.w	r2, r2, r5, lsl #8
 8003380:	4d27      	ldr	r5, [pc, #156]	@ (8003420 <HAL_TIM_PWM_ConfigChannel+0x204>)
 8003382:	42ab      	cmp	r3, r5
 8003384:	d03c      	beq.n	8003400 <HAL_TIM_PWM_ConfigChannel+0x1e4>
 8003386:	f505 6580 	add.w	r5, r5, #1024	@ 0x400
 800338a:	42ab      	cmp	r3, r5
 800338c:	d038      	beq.n	8003400 <HAL_TIM_PWM_ConfigChannel+0x1e4>
 800338e:	605c      	str	r4, [r3, #4]
 8003390:	61d8      	str	r0, [r3, #28]
 8003392:	6848      	ldr	r0, [r1, #4]
 8003394:	63d8      	str	r0, [r3, #60]	@ 0x3c
 8003396:	621a      	str	r2, [r3, #32]
 8003398:	69da      	ldr	r2, [r3, #28]
 800339a:	6909      	ldr	r1, [r1, #16]
 800339c:	f042 0208 	orr.w	r2, r2, #8
 80033a0:	61da      	str	r2, [r3, #28]
 80033a2:	69da      	ldr	r2, [r3, #28]
 80033a4:	f022 0204 	bic.w	r2, r2, #4
 80033a8:	61da      	str	r2, [r3, #28]
 80033aa:	69da      	ldr	r2, [r3, #28]
 80033ac:	430a      	orrs	r2, r1
 80033ae:	61da      	str	r2, [r3, #28]
 80033b0:	e77b      	b.n	80032aa <HAL_TIM_PWM_ConfigChannel+0x8e>
 80033b2:	2002      	movs	r0, #2
 80033b4:	4770      	bx	lr
 80033b6:	68cd      	ldr	r5, [r1, #12]
 80033b8:	f022 0208 	bic.w	r2, r2, #8
 80033bc:	432a      	orrs	r2, r5
 80033be:	e9d1 6505 	ldrd	r6, r5, [r1, #20]
 80033c2:	f424 7440 	bic.w	r4, r4, #768	@ 0x300
 80033c6:	ea46 0e05 	orr.w	lr, r6, r5
 80033ca:	f022 0204 	bic.w	r2, r2, #4
 80033ce:	ea4e 0404 	orr.w	r4, lr, r4
 80033d2:	e786      	b.n	80032e2 <HAL_TIM_PWM_ConfigChannel+0xc6>
 80033d4:	68cd      	ldr	r5, [r1, #12]
 80033d6:	f022 0280 	bic.w	r2, r2, #128	@ 0x80
 80033da:	ea42 1205 	orr.w	r2, r2, r5, lsl #4
 80033de:	e9d1 6505 	ldrd	r6, r5, [r1, #20]
 80033e2:	f424 6440 	bic.w	r4, r4, #3072	@ 0xc00
 80033e6:	ea46 0e05 	orr.w	lr, r6, r5
 80033ea:	f022 0240 	bic.w	r2, r2, #64	@ 0x40
 80033ee:	ea44 048e 	orr.w	r4, r4, lr, lsl #2
 80033f2:	e7a1      	b.n	8003338 <HAL_TIM_PWM_ConfigChannel+0x11c>
 80033f4:	694d      	ldr	r5, [r1, #20]
 80033f6:	f424 4480 	bic.w	r4, r4, #16384	@ 0x4000
 80033fa:	ea44 1485 	orr.w	r4, r4, r5, lsl #6
 80033fe:	e742      	b.n	8003286 <HAL_TIM_PWM_ConfigChannel+0x6a>
 8003400:	68cd      	ldr	r5, [r1, #12]
 8003402:	f422 6200 	bic.w	r2, r2, #2048	@ 0x800
 8003406:	ea42 2205 	orr.w	r2, r2, r5, lsl #8
 800340a:	e9d1 6505 	ldrd	r6, r5, [r1, #20]
 800340e:	f424 5440 	bic.w	r4, r4, #12288	@ 0x3000
 8003412:	ea46 0e05 	orr.w	lr, r6, r5
 8003416:	f422 6280 	bic.w	r2, r2, #1024	@ 0x400
 800341a:	ea44 140e 	orr.w	r4, r4, lr, lsl #4
 800341e:	e7b6      	b.n	800338e <HAL_TIM_PWM_ConfigChannel+0x172>
 8003420:	40010000 	.word	0x40010000

08003424 <HAL_TIM_ConfigClockSource>:
 8003424:	f890 303c 	ldrb.w	r3, [r0, #60]	@ 0x3c
 8003428:	2b01      	cmp	r3, #1
 800342a:	d071      	beq.n	8003510 <HAL_TIM_ConfigClockSource+0xec>
 800342c:	4602      	mov	r2, r0
 800342e:	b430      	push	{r4, r5}
 8003430:	2302      	movs	r3, #2
 8003432:	6804      	ldr	r4, [r0, #0]
 8003434:	f882 303d 	strb.w	r3, [r2, #61]	@ 0x3d
 8003438:	2001      	movs	r0, #1
 800343a:	f882 003c 	strb.w	r0, [r2, #60]	@ 0x3c
 800343e:	68a3      	ldr	r3, [r4, #8]
 8003440:	f423 437f 	bic.w	r3, r3, #65280	@ 0xff00
 8003444:	f023 0377 	bic.w	r3, r3, #119	@ 0x77
 8003448:	60a3      	str	r3, [r4, #8]
 800344a:	680b      	ldr	r3, [r1, #0]
 800344c:	2b60      	cmp	r3, #96	@ 0x60
 800344e:	d061      	beq.n	8003514 <HAL_TIM_ConfigClockSource+0xf0>
 8003450:	d824      	bhi.n	800349c <HAL_TIM_ConfigClockSource+0x78>
 8003452:	2b40      	cmp	r3, #64	@ 0x40
 8003454:	d077      	beq.n	8003546 <HAL_TIM_ConfigClockSource+0x122>
 8003456:	d94a      	bls.n	80034ee <HAL_TIM_ConfigClockSource+0xca>
 8003458:	2b50      	cmp	r3, #80	@ 0x50
 800345a:	d117      	bne.n	800348c <HAL_TIM_ConfigClockSource+0x68>
 800345c:	684b      	ldr	r3, [r1, #4]
 800345e:	68c8      	ldr	r0, [r1, #12]
 8003460:	6a21      	ldr	r1, [r4, #32]
 8003462:	f021 010a 	bic.w	r1, r1, #10
 8003466:	4319      	orrs	r1, r3
 8003468:	6a23      	ldr	r3, [r4, #32]
 800346a:	f023 0301 	bic.w	r3, r3, #1
 800346e:	6223      	str	r3, [r4, #32]
 8003470:	69a3      	ldr	r3, [r4, #24]
 8003472:	f023 03f0 	bic.w	r3, r3, #240	@ 0xf0
 8003476:	ea43 1300 	orr.w	r3, r3, r0, lsl #4
 800347a:	61a3      	str	r3, [r4, #24]
 800347c:	6221      	str	r1, [r4, #32]
 800347e:	68a3      	ldr	r3, [r4, #8]
 8003480:	f023 0370 	bic.w	r3, r3, #112	@ 0x70
 8003484:	f043 0357 	orr.w	r3, r3, #87	@ 0x57
 8003488:	60a3      	str	r3, [r4, #8]
 800348a:	2000      	movs	r0, #0
 800348c:	2101      	movs	r1, #1
 800348e:	2300      	movs	r3, #0
 8003490:	f882 103d 	strb.w	r1, [r2, #61]	@ 0x3d
 8003494:	f882 303c 	strb.w	r3, [r2, #60]	@ 0x3c
 8003498:	bc30      	pop	{r4, r5}
 800349a:	4770      	bx	lr
 800349c:	f5b3 5f80 	cmp.w	r3, #4096	@ 0x1000
 80034a0:	d0f3      	beq.n	800348a <HAL_TIM_ConfigClockSource+0x66>
 80034a2:	f5b3 5f00 	cmp.w	r3, #8192	@ 0x2000
 80034a6:	d110      	bne.n	80034ca <HAL_TIM_ConfigClockSource+0xa6>
 80034a8:	e9d1 5301 	ldrd	r5, r3, [r1, #4]
 80034ac:	68a0      	ldr	r0, [r4, #8]
 80034ae:	432b      	orrs	r3, r5
 80034b0:	68cd      	ldr	r5, [r1, #12]
 80034b2:	f420 417f 	bic.w	r1, r0, #65280	@ 0xff00
 80034b6:	ea43 2305 	orr.w	r3, r3, r5, lsl #8
 80034ba:	430b      	orrs	r3, r1
 80034bc:	60a3      	str	r3, [r4, #8]
 80034be:	68a3      	ldr	r3, [r4, #8]
 80034c0:	f443 4380 	orr.w	r3, r3, #16384	@ 0x4000
 80034c4:	60a3      	str	r3, [r4, #8]
 80034c6:	2000      	movs	r0, #0
 80034c8:	e7e0      	b.n	800348c <HAL_TIM_ConfigClockSource+0x68>
 80034ca:	2b70      	cmp	r3, #112	@ 0x70
 80034cc:	d1de      	bne.n	800348c <HAL_TIM_ConfigClockSource+0x68>
 80034ce:	e9d1 5301 	ldrd	r5, r3, [r1, #4]
 80034d2:	68a0      	ldr	r0, [r4, #8]
 80034d4:	432b      	orrs	r3, r5
 80034d6:	68cd      	ldr	r5, [r1, #12]
 80034d8:	f420 417f 	bic.w	r1, r0, #65280	@ 0xff00
 80034dc:	ea43 2305 	orr.w	r3, r3, r5, lsl #8
 80034e0:	430b      	orrs	r3, r1
 80034e2:	60a3      	str	r3, [r4, #8]
 80034e4:	68a3      	ldr	r3, [r4, #8]
 80034e6:	f043 0377 	orr.w	r3, r3, #119	@ 0x77
 80034ea:	60a3      	str	r3, [r4, #8]
 80034ec:	e7cd      	b.n	800348a <HAL_TIM_ConfigClockSource+0x66>
 80034ee:	2b20      	cmp	r3, #32
 80034f0:	d002      	beq.n	80034f8 <HAL_TIM_ConfigClockSource+0xd4>
 80034f2:	d909      	bls.n	8003508 <HAL_TIM_ConfigClockSource+0xe4>
 80034f4:	2b30      	cmp	r3, #48	@ 0x30
 80034f6:	d1c9      	bne.n	800348c <HAL_TIM_ConfigClockSource+0x68>
 80034f8:	68a1      	ldr	r1, [r4, #8]
 80034fa:	f021 0170 	bic.w	r1, r1, #112	@ 0x70
 80034fe:	430b      	orrs	r3, r1
 8003500:	f043 0307 	orr.w	r3, r3, #7
 8003504:	60a3      	str	r3, [r4, #8]
 8003506:	e7c0      	b.n	800348a <HAL_TIM_ConfigClockSource+0x66>
 8003508:	f033 0110 	bics.w	r1, r3, #16
 800350c:	d1be      	bne.n	800348c <HAL_TIM_ConfigClockSource+0x68>
 800350e:	e7f3      	b.n	80034f8 <HAL_TIM_ConfigClockSource+0xd4>
 8003510:	2002      	movs	r0, #2
 8003512:	4770      	bx	lr
 8003514:	6a23      	ldr	r3, [r4, #32]
 8003516:	684d      	ldr	r5, [r1, #4]
 8003518:	68c8      	ldr	r0, [r1, #12]
 800351a:	6a21      	ldr	r1, [r4, #32]
 800351c:	f021 0110 	bic.w	r1, r1, #16
 8003520:	6221      	str	r1, [r4, #32]
 8003522:	69a1      	ldr	r1, [r4, #24]
 8003524:	f023 03a0 	bic.w	r3, r3, #160	@ 0xa0
 8003528:	f421 4170 	bic.w	r1, r1, #61440	@ 0xf000
 800352c:	ea43 1305 	orr.w	r3, r3, r5, lsl #4
 8003530:	ea41 3100 	orr.w	r1, r1, r0, lsl #12
 8003534:	61a1      	str	r1, [r4, #24]
 8003536:	6223      	str	r3, [r4, #32]
 8003538:	68a3      	ldr	r3, [r4, #8]
 800353a:	f023 0370 	bic.w	r3, r3, #112	@ 0x70
 800353e:	f043 0367 	orr.w	r3, r3, #103	@ 0x67
 8003542:	60a3      	str	r3, [r4, #8]
 8003544:	e7a1      	b.n	800348a <HAL_TIM_ConfigClockSource+0x66>
 8003546:	684b      	ldr	r3, [r1, #4]
 8003548:	68c8      	ldr	r0, [r1, #12]
 800354a:	6a21      	ldr	r1, [r4, #32]
 800354c:	f021 010a 	bic.w	r1, r1, #10
 8003550:	4319      	orrs	r1, r3
 8003552:	6a23      	ldr	r3, [r4, #32]
 8003554:	f023 0301 	bic.w	r3, r3, #1
 8003558:	6223      	str	r3, [r4, #32]
 800355a:	69a3      	ldr	r3, [r4, #24]
 800355c:	f023 03f0 	bic.w	r3, r3, #240	@ 0xf0
 8003560:	ea43 1300 	orr.w	r3, r3, r0, lsl #4
 8003564:	61a3      	str	r3, [r4, #24]
 8003566:	6221      	str	r1, [r4, #32]
 8003568:	68a3      	ldr	r3, [r4, #8]
 800356a:	f023 0370 	bic.w	r3, r3, #112	@ 0x70
 800356e:	f043 0347 	orr.w	r3, r3, #71	@ 0x47
 8003572:	60a3      	str	r3, [r4, #8]
 8003574:	e789      	b.n	800348a <HAL_TIM_ConfigClockSource+0x66>
 8003576:	bf00      	nop

08003578 <HAL_TIMEx_MasterConfigSynchronization>:
 8003578:	f890 203c 	ldrb.w	r2, [r0, #60]	@ 0x3c
 800357c:	2a01      	cmp	r2, #1
 800357e:	d037      	beq.n	80035f0 <HAL_TIMEx_MasterConfigSynchronization+0x78>
 8003580:	4603      	mov	r3, r0
 8003582:	6802      	ldr	r2, [r0, #0]
 8003584:	2002      	movs	r0, #2
 8003586:	b430      	push	{r4, r5}
 8003588:	f883 003d 	strb.w	r0, [r3, #61]	@ 0x3d
 800358c:	6850      	ldr	r0, [r2, #4]
 800358e:	680d      	ldr	r5, [r1, #0]
 8003590:	6894      	ldr	r4, [r2, #8]
 8003592:	f020 0070 	bic.w	r0, r0, #112	@ 0x70
 8003596:	4328      	orrs	r0, r5
 8003598:	6050      	str	r0, [r2, #4]
 800359a:	4816      	ldr	r0, [pc, #88]	@ (80035f4 <HAL_TIMEx_MasterConfigSynchronization+0x7c>)
 800359c:	4282      	cmp	r2, r0
 800359e:	d01a      	beq.n	80035d6 <HAL_TIMEx_MasterConfigSynchronization+0x5e>
 80035a0:	f1b2 4f80 	cmp.w	r2, #1073741824	@ 0x40000000
 80035a4:	d017      	beq.n	80035d6 <HAL_TIMEx_MasterConfigSynchronization+0x5e>
 80035a6:	f5a0 407c 	sub.w	r0, r0, #64512	@ 0xfc00
 80035aa:	4282      	cmp	r2, r0
 80035ac:	d013      	beq.n	80035d6 <HAL_TIMEx_MasterConfigSynchronization+0x5e>
 80035ae:	f500 6080 	add.w	r0, r0, #1024	@ 0x400
 80035b2:	4282      	cmp	r2, r0
 80035b4:	d00f      	beq.n	80035d6 <HAL_TIMEx_MasterConfigSynchronization+0x5e>
 80035b6:	f500 6080 	add.w	r0, r0, #1024	@ 0x400
 80035ba:	4282      	cmp	r2, r0
 80035bc:	d00b      	beq.n	80035d6 <HAL_TIMEx_MasterConfigSynchronization+0x5e>
 80035be:	f500 4078 	add.w	r0, r0, #63488	@ 0xf800
 80035c2:	4282      	cmp	r2, r0
 80035c4:	d007      	beq.n	80035d6 <HAL_TIMEx_MasterConfigSynchronization+0x5e>
 80035c6:	f500 5070 	add.w	r0, r0, #15360	@ 0x3c00
 80035ca:	4282      	cmp	r2, r0
 80035cc:	d003      	beq.n	80035d6 <HAL_TIMEx_MasterConfigSynchronization+0x5e>
 80035ce:	f5a0 3094 	sub.w	r0, r0, #75776	@ 0x12800
 80035d2:	4282      	cmp	r2, r0
 80035d4:	d104      	bne.n	80035e0 <HAL_TIMEx_MasterConfigSynchronization+0x68>
 80035d6:	6849      	ldr	r1, [r1, #4]
 80035d8:	f024 0480 	bic.w	r4, r4, #128	@ 0x80
 80035dc:	430c      	orrs	r4, r1
 80035de:	6094      	str	r4, [r2, #8]
 80035e0:	2000      	movs	r0, #0
 80035e2:	2201      	movs	r2, #1
 80035e4:	f883 203d 	strb.w	r2, [r3, #61]	@ 0x3d
 80035e8:	f883 003c 	strb.w	r0, [r3, #60]	@ 0x3c
 80035ec:	bc30      	pop	{r4, r5}
 80035ee:	4770      	bx	lr
 80035f0:	2002      	movs	r0, #2
 80035f2:	4770      	bx	lr
 80035f4:	40010000 	.word	0x40010000

080035f8 <HAL_TIMEx_ConfigBreakDeadTime>:
 80035f8:	f890 303c 	ldrb.w	r3, [r0, #60]	@ 0x3c
 80035fc:	2b01      	cmp	r3, #1
 80035fe:	d023      	beq.n	8003648 <HAL_TIMEx_ConfigBreakDeadTime+0x50>
 8003600:	b410      	push	{r4}
 8003602:	e9d1 4302 	ldrd	r4, r3, [r1, #8]
 8003606:	f423 7340 	bic.w	r3, r3, #768	@ 0x300
 800360a:	4602      	mov	r2, r0
 800360c:	4323      	orrs	r3, r4
 800360e:	6848      	ldr	r0, [r1, #4]
 8003610:	680c      	ldr	r4, [r1, #0]
 8003612:	f423 6380 	bic.w	r3, r3, #1024	@ 0x400
 8003616:	4303      	orrs	r3, r0
 8003618:	f423 6300 	bic.w	r3, r3, #2048	@ 0x800
 800361c:	6908      	ldr	r0, [r1, #16]
 800361e:	4323      	orrs	r3, r4
 8003620:	f423 5380 	bic.w	r3, r3, #4096	@ 0x1000
 8003624:	4303      	orrs	r3, r0
 8003626:	6948      	ldr	r0, [r1, #20]
 8003628:	69cc      	ldr	r4, [r1, #28]
 800362a:	f423 5300 	bic.w	r3, r3, #8192	@ 0x2000
 800362e:	4303      	orrs	r3, r0
 8003630:	f423 4380 	bic.w	r3, r3, #16384	@ 0x4000
 8003634:	6810      	ldr	r0, [r2, #0]
 8003636:	2100      	movs	r1, #0
 8003638:	4323      	orrs	r3, r4
 800363a:	6443      	str	r3, [r0, #68]	@ 0x44
 800363c:	f882 103c 	strb.w	r1, [r2, #60]	@ 0x3c
 8003640:	4608      	mov	r0, r1
 8003642:	f85d 4b04 	ldr.w	r4, [sp], #4
 8003646:	4770      	bx	lr
 8003648:	2002      	movs	r0, #2
 800364a:	4770      	bx	lr

0800364c <Reset_Handler>:
 800364c:	f8df d034 	ldr.w	sp, [pc, #52]	@ 8003684 <LoopFillZerobss+0xe>
 8003650:	f000 f826 	bl	80036a0 <SystemInit>
 8003654:	480c      	ldr	r0, [pc, #48]	@ (8003688 <LoopFillZerobss+0x12>)
 8003656:	490d      	ldr	r1, [pc, #52]	@ (800368c <LoopFillZerobss+0x16>)
 8003658:	4a0d      	ldr	r2, [pc, #52]	@ (8003690 <LoopFillZerobss+0x1a>)
 800365a:	2300      	movs	r3, #0
 800365c:	e002      	b.n	8003664 <LoopCopyDataInit>

0800365e <CopyDataInit>:
 800365e:	58d4      	ldr	r4, [r2, r3]
 8003660:	50c4      	str	r4, [r0, r3]
 8003662:	3304      	adds	r3, #4

08003664 <LoopCopyDataInit>:
 8003664:	18c4      	adds	r4, r0, r3
 8003666:	428c      	cmp	r4, r1
 8003668:	d3f9      	bcc.n	800365e <CopyDataInit>
 800366a:	4a0a      	ldr	r2, [pc, #40]	@ (8003694 <LoopFillZerobss+0x1e>)
 800366c:	4c0a      	ldr	r4, [pc, #40]	@ (8003698 <LoopFillZerobss+0x22>)
 800366e:	2300      	movs	r3, #0
 8003670:	e001      	b.n	8003676 <LoopFillZerobss>

08003672 <FillZerobss>:
 8003672:	6013      	str	r3, [r2, #0]
 8003674:	3204      	adds	r2, #4

08003676 <LoopFillZerobss>:
 8003676:	42a2      	cmp	r2, r4
 8003678:	d3fb      	bcc.n	8003672 <FillZerobss>
 800367a:	f002 f925 	bl	80058c8 <__libc_init_array>
 800367e:	f7fd fd8f 	bl	80011a0 <main>
 8003682:	4770      	bx	lr
 8003684:	20020000 	.word	0x20020000
 8003688:	20000000 	.word	0x20000000
 800368c:	2000000c 	.word	0x2000000c
 8003690:	08005a2c 	.word	0x08005a2c
 8003694:	20000010 	.word	0x20000010
 8003698:	20001cc4 	.word	0x20001cc4

0800369c <ADC_IRQHandler>:
 800369c:	e7fe      	b.n	800369c <ADC_IRQHandler>
	...

080036a0 <SystemInit>:
 80036a0:	4a03      	ldr	r2, [pc, #12]	@ (80036b0 <SystemInit+0x10>)
 80036a2:	f8d2 3088 	ldr.w	r3, [r2, #136]	@ 0x88
 80036a6:	f443 0370 	orr.w	r3, r3, #15728640	@ 0xf00000
 80036aa:	f8c2 3088 	str.w	r3, [r2, #136]	@ 0x88
 80036ae:	4770      	bx	lr
 80036b0:	e000ed00 	.word	0xe000ed00

080036b4 <CPU_Cache_Init>:
 80036b4:	f04f 23e0 	mov.w	r3, #3758153728	@ 0xe000e000
 80036b8:	4905      	ldr	r1, [pc, #20]	@ (80036d0 <CPU_Cache_Init+0x1c>)
 80036ba:	f8d3 3d80 	ldr.w	r3, [r3, #3456]	@ 0xd80
 80036be:	f003 0307 	and.w	r3, r3, #7
 80036c2:	2201      	movs	r2, #1
 80036c4:	3302      	adds	r3, #2
 80036c6:	fa02 f303 	lsl.w	r3, r2, r3
 80036ca:	600b      	str	r3, [r1, #0]
 80036cc:	4770      	bx	lr
 80036ce:	bf00      	nop
 80036d0:	200010fc 	.word	0x200010fc

080036d4 <CPU_Init>:
 80036d4:	b510      	push	{r4, lr}
 80036d6:	2040      	movs	r0, #64	@ 0x40
 80036d8:	f7fc fd7a 	bl	80001d0 <CPU_SR_Save>
 80036dc:	2110      	movs	r1, #16
 80036de:	4604      	mov	r4, r0
 80036e0:	4804      	ldr	r0, [pc, #16]	@ (80036f4 <CPU_Init+0x20>)
 80036e2:	f000 f809 	bl	80036f8 <Mem_Clr>
 80036e6:	4620      	mov	r0, r4
 80036e8:	f7fc fd80 	bl	80001ec <CPU_SR_Restore>
 80036ec:	e8bd 4010 	ldmia.w	sp!, {r4, lr}
 80036f0:	f7ff bfe0 	b.w	80036b4 <CPU_Cache_Init>
 80036f4:	20001100 	.word	0x20001100

080036f8 <Mem_Clr>:
 80036f8:	f010 0203 	ands.w	r2, r0, #3
 80036fc:	b538      	push	{r3, r4, r5, lr}
 80036fe:	4603      	mov	r3, r0
 8003700:	460c      	mov	r4, r1
 8003702:	d028      	beq.n	8003756 <Mem_Clr+0x5e>
 8003704:	b331      	cbz	r1, 8003754 <Mem_Clr+0x5c>
 8003706:	2100      	movs	r1, #0
 8003708:	7001      	strb	r1, [r0, #0]
 800370a:	1e60      	subs	r0, r4, #1
 800370c:	d022      	beq.n	8003754 <Mem_Clr+0x5c>
 800370e:	2a03      	cmp	r2, #3
 8003710:	d024      	beq.n	800375c <Mem_Clr+0x64>
 8003712:	1ea0      	subs	r0, r4, #2
 8003714:	7059      	strb	r1, [r3, #1]
 8003716:	d01d      	beq.n	8003754 <Mem_Clr+0x5c>
 8003718:	2a01      	cmp	r2, #1
 800371a:	d125      	bne.n	8003768 <Mem_Clr+0x70>
 800371c:	3c03      	subs	r4, #3
 800371e:	7099      	strb	r1, [r3, #2]
 8003720:	f103 0303 	add.w	r3, r3, #3
 8003724:	d016      	beq.n	8003754 <Mem_Clr+0x5c>
 8003726:	2c03      	cmp	r4, #3
 8003728:	d90d      	bls.n	8003746 <Mem_Clr+0x4e>
 800372a:	1f25      	subs	r5, r4, #4
 800372c:	f025 0503 	bic.w	r5, r5, #3
 8003730:	3504      	adds	r5, #4
 8003732:	4618      	mov	r0, r3
 8003734:	462a      	mov	r2, r5
 8003736:	2100      	movs	r1, #0
 8003738:	f002 f8be 	bl	80058b8 <memset>
 800373c:	4603      	mov	r3, r0
 800373e:	f004 0403 	and.w	r4, r4, #3
 8003742:	442b      	add	r3, r5
 8003744:	b134      	cbz	r4, 8003754 <Mem_Clr+0x5c>
 8003746:	4622      	mov	r2, r4
 8003748:	4618      	mov	r0, r3
 800374a:	2100      	movs	r1, #0
 800374c:	e8bd 4038 	ldmia.w	sp!, {r3, r4, r5, lr}
 8003750:	f002 b8b2 	b.w	80058b8 <memset>
 8003754:	bd38      	pop	{r3, r4, r5, pc}
 8003756:	2903      	cmp	r1, #3
 8003758:	d8e7      	bhi.n	800372a <Mem_Clr+0x32>
 800375a:	e7f3      	b.n	8003744 <Mem_Clr+0x4c>
 800375c:	2803      	cmp	r0, #3
 800375e:	f103 0301 	add.w	r3, r3, #1
 8003762:	4604      	mov	r4, r0
 8003764:	d8e1      	bhi.n	800372a <Mem_Clr+0x32>
 8003766:	e7ee      	b.n	8003746 <Mem_Clr+0x4e>
 8003768:	2803      	cmp	r0, #3
 800376a:	f103 0302 	add.w	r3, r3, #2
 800376e:	4604      	mov	r4, r0
 8003770:	d8db      	bhi.n	800372a <Mem_Clr+0x32>
 8003772:	e7e8      	b.n	8003746 <Mem_Clr+0x4e>

08003774 <OSIdleTaskHook>:
 8003774:	4b02      	ldr	r3, [pc, #8]	@ (8003780 <OSIdleTaskHook+0xc>)
 8003776:	681b      	ldr	r3, [r3, #0]
 8003778:	b103      	cbz	r3, 800377c <OSIdleTaskHook+0x8>
 800377a:	4718      	bx	r3
 800377c:	4770      	bx	lr
 800377e:	bf00      	nop
 8003780:	20001cb4 	.word	0x20001cb4

08003784 <OSInitHook>:
 8003784:	4b0b      	ldr	r3, [pc, #44]	@ (80037b4 <OSInitHook+0x30>)
 8003786:	4a0c      	ldr	r2, [pc, #48]	@ (80037b8 <OSInitHook+0x34>)
 8003788:	681b      	ldr	r3, [r3, #0]
 800378a:	6812      	ldr	r2, [r2, #0]
 800378c:	490b      	ldr	r1, [pc, #44]	@ (80037bc <OSInitHook+0x38>)
 800378e:	eb03 0382 	add.w	r3, r3, r2, lsl #2
 8003792:	f04f 22e0 	mov.w	r2, #3758153728	@ 0xe000e000
 8003796:	f023 0307 	bic.w	r3, r3, #7
 800379a:	600b      	str	r3, [r1, #0]
 800379c:	f8d2 3f34 	ldr.w	r3, [r2, #3892]	@ 0xf34
 80037a0:	f003 4340 	and.w	r3, r3, #3221225472	@ 0xc0000000
 80037a4:	f1b3 4f40 	cmp.w	r3, #3221225472	@ 0xc0000000
 80037a8:	d000      	beq.n	80037ac <OSInitHook+0x28>
 80037aa:	e7fe      	b.n	80037aa <OSInitHook+0x26>
 80037ac:	4b04      	ldr	r3, [pc, #16]	@ (80037c0 <OSInitHook+0x3c>)
 80037ae:	2240      	movs	r2, #64	@ 0x40
 80037b0:	601a      	str	r2, [r3, #0]
 80037b2:	4770      	bx	lr
 80037b4:	08005a0c 	.word	0x08005a0c
 80037b8:	08005a08 	.word	0x08005a08
 80037bc:	20001114 	.word	0x20001114
 80037c0:	20001110 	.word	0x20001110

080037c4 <OSStatTaskHook>:
 80037c4:	4b02      	ldr	r3, [pc, #8]	@ (80037d0 <OSStatTaskHook+0xc>)
 80037c6:	681b      	ldr	r3, [r3, #0]
 80037c8:	b103      	cbz	r3, 80037cc <OSStatTaskHook+0x8>
 80037ca:	4718      	bx	r3
 80037cc:	4770      	bx	lr
 80037ce:	bf00      	nop
 80037d0:	20001cb0 	.word	0x20001cb0

080037d4 <OSTaskCreateHook>:
 80037d4:	4b02      	ldr	r3, [pc, #8]	@ (80037e0 <OSTaskCreateHook+0xc>)
 80037d6:	681b      	ldr	r3, [r3, #0]
 80037d8:	b103      	cbz	r3, 80037dc <OSTaskCreateHook+0x8>
 80037da:	4718      	bx	r3
 80037dc:	4770      	bx	lr
 80037de:	bf00      	nop
 80037e0:	20001cc0 	.word	0x20001cc0

080037e4 <OSTaskDelHook>:
 80037e4:	4b02      	ldr	r3, [pc, #8]	@ (80037f0 <OSTaskDelHook+0xc>)
 80037e6:	681b      	ldr	r3, [r3, #0]
 80037e8:	b103      	cbz	r3, 80037ec <OSTaskDelHook+0x8>
 80037ea:	4718      	bx	r3
 80037ec:	4770      	bx	lr
 80037ee:	bf00      	nop
 80037f0:	20001cbc 	.word	0x20001cbc

080037f4 <OSTaskReturnHook>:
 80037f4:	4b02      	ldr	r3, [pc, #8]	@ (8003800 <OSTaskReturnHook+0xc>)
 80037f6:	681b      	ldr	r3, [r3, #0]
 80037f8:	b103      	cbz	r3, 80037fc <OSTaskReturnHook+0x8>
 80037fa:	4718      	bx	r3
 80037fc:	4770      	bx	lr
 80037fe:	bf00      	nop
 8003800:	20001cb8 	.word	0x20001cb8
 8003804:	00000000 	.word	0x00000000

08003808 <OSTaskStkInit>:
 8003808:	b430      	push	{r4, r5}
 800380a:	9c02      	ldr	r4, [sp, #8]
 800380c:	eb02 0284 	add.w	r2, r2, r4, lsl #2
 8003810:	f022 0207 	bic.w	r2, r2, #7
 8003814:	f04f 7480 	mov.w	r4, #16777216	@ 0x1000000
 8003818:	f842 4c04 	str.w	r4, [r2, #-4]
 800381c:	4c1a      	ldr	r4, [pc, #104]	@ (8003888 <OSTaskStkInit+0x80>)
 800381e:	f842 1c20 	str.w	r1, [r2, #-32]
 8003822:	e942 4003 	strd	r4, r0, [r2, #-12]
 8003826:	f04f 3012 	mov.w	r0, #303174162	@ 0x12121212
 800382a:	f842 0c10 	str.w	r0, [r2, #-16]
 800382e:	f04f 3410 	mov.w	r4, #269488144	@ 0x10101010
 8003832:	f04f 3011 	mov.w	r0, #286331153	@ 0x11111111
 8003836:	f04f 3109 	mov.w	r1, #151587081	@ 0x9090909
 800383a:	ed9f 7b11 	vldr	d7, [pc, #68]	@ 8003880 <OSTaskStkInit+0x78>
 800383e:	e942 140c 	strd	r1, r4, [r2, #-48]	@ 0x30
 8003842:	f842 3c1c 	str.w	r3, [r2, #-28]
 8003846:	f842 0c28 	str.w	r0, [r2, #-40]
 800384a:	4613      	mov	r3, r2
 800384c:	f04f 3008 	mov.w	r0, #134744072	@ 0x8080808
 8003850:	f04f 3107 	mov.w	r1, #117901063	@ 0x7070707
 8003854:	e942 100e 	strd	r1, r0, [r2, #-56]	@ 0x38
 8003858:	f06f 0502 	mvn.w	r5, #2
 800385c:	f04f 3406 	mov.w	r4, #101058054	@ 0x6060606
 8003860:	f04f 3005 	mov.w	r0, #84215045	@ 0x5050505
 8003864:	f04f 3104 	mov.w	r1, #67372036	@ 0x4040404
 8003868:	e942 0410 	strd	r0, r4, [r2, #-64]	@ 0x40
 800386c:	f842 5c24 	str.w	r5, [r2, #-36]
 8003870:	ed02 7b06 	vstr	d7, [r2, #-24]	@ 0xffffffe8
 8003874:	f843 1d44 	str.w	r1, [r3, #-68]!
 8003878:	bc30      	pop	{r4, r5}
 800387a:	4618      	mov	r0, r3
 800387c:	4770      	bx	lr
 800387e:	bf00      	nop
 8003880:	02020202 	.word	0x02020202
 8003884:	03030303 	.word	0x03030303
 8003888:	08004f31 	.word	0x08004f31

0800388c <OSTaskSwHook>:
 800388c:	4b0b      	ldr	r3, [pc, #44]	@ (80038bc <OSTaskSwHook+0x30>)
 800388e:	681b      	ldr	r3, [r3, #0]
 8003890:	b510      	push	{r4, lr}
 8003892:	b103      	cbz	r3, 8003896 <OSTaskSwHook+0xa>
 8003894:	4798      	blx	r3
 8003896:	4b0a      	ldr	r3, [pc, #40]	@ (80038c0 <OSTaskSwHook+0x34>)
 8003898:	4a0a      	ldr	r2, [pc, #40]	@ (80038c4 <OSTaskSwHook+0x38>)
 800389a:	681b      	ldr	r3, [r3, #0]
 800389c:	6812      	ldr	r2, [r2, #0]
 800389e:	4293      	cmp	r3, r2
 80038a0:	d007      	beq.n	80038b2 <OSTaskSwHook+0x26>
 80038a2:	e9d3 0123 	ldrd	r0, r1, [r3, #140]	@ 0x8c
 80038a6:	4244      	negs	r4, r0
 80038a8:	1a09      	subs	r1, r1, r0
 80038aa:	f8c3 4088 	str.w	r4, [r3, #136]	@ 0x88
 80038ae:	f8c3 1090 	str.w	r1, [r3, #144]	@ 0x90
 80038b2:	2300      	movs	r3, #0
 80038b4:	f8c2 308c 	str.w	r3, [r2, #140]	@ 0x8c
 80038b8:	bd10      	pop	{r4, pc}
 80038ba:	bf00      	nop
 80038bc:	20001cac 	.word	0x20001cac
 80038c0:	2000192c 	.word	0x2000192c
 80038c4:	20001928 	.word	0x20001928

080038c8 <OSTimeTickHook>:
 80038c8:	4b02      	ldr	r3, [pc, #8]	@ (80038d4 <OSTimeTickHook+0xc>)
 80038ca:	681b      	ldr	r3, [r3, #0]
 80038cc:	b103      	cbz	r3, 80038d0 <OSTimeTickHook+0x8>
 80038ce:	4718      	bx	r3
 80038d0:	4770      	bx	lr
 80038d2:	bf00      	nop
 80038d4:	20001ca8 	.word	0x20001ca8

080038d8 <OS_CPU_SysTickHandler>:
 80038d8:	b510      	push	{r4, lr}
 80038da:	2040      	movs	r0, #64	@ 0x40
 80038dc:	f7fc fc78 	bl	80001d0 <CPU_SR_Save>
 80038e0:	4604      	mov	r4, r0
 80038e2:	f000 f8e3 	bl	8003aac <OSIntEnter>
 80038e6:	4620      	mov	r0, r4
 80038e8:	f7fc fc80 	bl	80001ec <CPU_SR_Restore>
 80038ec:	f001 fd9c 	bl	8005428 <OSTimeTick>
 80038f0:	e8bd 4010 	ldmia.w	sp!, {r4, lr}
 80038f4:	f000 b8ea 	b.w	8003acc <OSIntExit>

080038f8 <OSCfg_Init>:
 80038f8:	4770      	bx	lr
 80038fa:	bf00      	nop

080038fc <OS_IdleTask>:
 80038fc:	b510      	push	{r4, lr}
 80038fe:	4c06      	ldr	r4, [pc, #24]	@ (8003918 <OS_IdleTask+0x1c>)
 8003900:	2040      	movs	r0, #64	@ 0x40
 8003902:	f7fc fc65 	bl	80001d0 <CPU_SR_Save>
 8003906:	6823      	ldr	r3, [r4, #0]
 8003908:	3301      	adds	r3, #1
 800390a:	6023      	str	r3, [r4, #0]
 800390c:	f7fc fc6e 	bl	80001ec <CPU_SR_Restore>
 8003910:	f7ff ff30 	bl	8003774 <OSIdleTaskHook>
 8003914:	e7f4      	b.n	8003900 <OS_IdleTask+0x4>
 8003916:	bf00      	nop
 8003918:	20001ad0 	.word	0x20001ad0

0800391c <OSInit>:
 800391c:	e92d 43f0 	stmdb	sp!, {r4, r5, r6, r7, r8, r9, lr}
 8003920:	b08b      	sub	sp, #44	@ 0x2c
 8003922:	4605      	mov	r5, r0
 8003924:	f7ff ff2e 	bl	8003784 <OSInitHook>
 8003928:	4b44      	ldr	r3, [pc, #272]	@ (8003a3c <OSInit+0x120>)
 800392a:	4a45      	ldr	r2, [pc, #276]	@ (8003a40 <OSInit+0x124>)
 800392c:	4945      	ldr	r1, [pc, #276]	@ (8003a44 <OSInit+0x128>)
 800392e:	681b      	ldr	r3, [r3, #0]
 8003930:	6808      	ldr	r0, [r1, #0]
 8003932:	4945      	ldr	r1, [pc, #276]	@ (8003a48 <OSInit+0x12c>)
 8003934:	f8df e164 	ldr.w	lr, [pc, #356]	@ 8003a9c <OSInit+0x180>
 8003938:	f8df 9164 	ldr.w	r9, [pc, #356]	@ 8003aa0 <OSInit+0x184>
 800393c:	f8df 8164 	ldr.w	r8, [pc, #356]	@ 8003aa4 <OSInit+0x188>
 8003940:	f8df c164 	ldr.w	ip, [pc, #356]	@ 8003aa8 <OSInit+0x18c>
 8003944:	4f41      	ldr	r7, [pc, #260]	@ (8003a4c <OSInit+0x130>)
 8003946:	4e42      	ldr	r6, [pc, #264]	@ (8003a50 <OSInit+0x134>)
 8003948:	4c42      	ldr	r4, [pc, #264]	@ (8003a54 <OSInit+0x138>)
 800394a:	fba2 2303 	umull	r2, r3, r2, r3
 800394e:	08db      	lsrs	r3, r3, #3
 8003950:	4a41      	ldr	r2, [pc, #260]	@ (8003a58 <OSInit+0x13c>)
 8003952:	600b      	str	r3, [r1, #0]
 8003954:	2100      	movs	r1, #0
 8003956:	f88e 1000 	strb.w	r1, [lr]
 800395a:	f889 1000 	strb.w	r1, [r9]
 800395e:	f888 1000 	strb.w	r1, [r8]
 8003962:	f8cc 1000 	str.w	r1, [ip]
 8003966:	6039      	str	r1, [r7, #0]
 8003968:	7031      	strb	r1, [r6, #0]
 800396a:	7021      	strb	r1, [r4, #0]
 800396c:	7011      	strb	r1, [r2, #0]
 800396e:	b128      	cbz	r0, 800397c <OSInit+0x60>
 8003970:	4b3a      	ldr	r3, [pc, #232]	@ (8003a5c <OSInit+0x140>)
 8003972:	681a      	ldr	r2, [r3, #0]
 8003974:	b112      	cbz	r2, 800397c <OSInit+0x60>
 8003976:	0092      	lsls	r2, r2, #2
 8003978:	f001 ff9e 	bl	80058b8 <memset>
 800397c:	4b38      	ldr	r3, [pc, #224]	@ (8003a60 <OSInit+0x144>)
 800397e:	4939      	ldr	r1, [pc, #228]	@ (8003a64 <OSInit+0x148>)
 8003980:	4a39      	ldr	r2, [pc, #228]	@ (8003a68 <OSInit+0x14c>)
 8003982:	483a      	ldr	r0, [pc, #232]	@ (8003a6c <OSInit+0x150>)
 8003984:	2400      	movs	r4, #0
 8003986:	601c      	str	r4, [r3, #0]
 8003988:	4b39      	ldr	r3, [pc, #228]	@ (8003a70 <OSInit+0x154>)
 800398a:	600c      	str	r4, [r1, #0]
 800398c:	6014      	str	r4, [r2, #0]
 800398e:	601c      	str	r4, [r3, #0]
 8003990:	4a38      	ldr	r2, [pc, #224]	@ (8003a74 <OSInit+0x158>)
 8003992:	4b39      	ldr	r3, [pc, #228]	@ (8003a78 <OSInit+0x15c>)
 8003994:	4939      	ldr	r1, [pc, #228]	@ (8003a7c <OSInit+0x160>)
 8003996:	6014      	str	r4, [r2, #0]
 8003998:	701c      	strb	r4, [r3, #0]
 800399a:	6004      	str	r4, [r0, #0]
 800399c:	600c      	str	r4, [r1, #0]
 800399e:	f000 ff3d 	bl	800481c <OS_PrioInit>
 80039a2:	4b37      	ldr	r3, [pc, #220]	@ (8003a80 <OSInit+0x164>)
 80039a4:	f503 7280 	add.w	r2, r3, #256	@ 0x100
 80039a8:	e9c3 4400 	strd	r4, r4, [r3]
 80039ac:	3308      	adds	r3, #8
 80039ae:	429a      	cmp	r2, r3
 80039b0:	d1fa      	bne.n	80039a8 <OSInit+0x8c>
 80039b2:	4628      	mov	r0, r5
 80039b4:	f000 fd94 	bl	80044e0 <OS_MemInit>
 80039b8:	882b      	ldrh	r3, [r5, #0]
 80039ba:	b113      	cbz	r3, 80039c2 <OSInit+0xa6>
 80039bc:	b00b      	add	sp, #44	@ 0x2c
 80039be:	e8bd 83f0 	ldmia.w	sp!, {r4, r5, r6, r7, r8, r9, pc}
 80039c2:	4628      	mov	r0, r5
 80039c4:	f000 fd90 	bl	80044e8 <OS_MsgPoolInit>
 80039c8:	882b      	ldrh	r3, [r5, #0]
 80039ca:	2b00      	cmp	r3, #0
 80039cc:	d1f6      	bne.n	80039bc <OSInit+0xa0>
 80039ce:	4628      	mov	r0, r5
 80039d0:	f001 f98a 	bl	8004ce8 <OS_TaskInit>
 80039d4:	882b      	ldrh	r3, [r5, #0]
 80039d6:	2b00      	cmp	r3, #0
 80039d8:	d1f0      	bne.n	80039bc <OSInit+0xa0>
 80039da:	492a      	ldr	r1, [pc, #168]	@ (8003a84 <OSInit+0x168>)
 80039dc:	482a      	ldr	r0, [pc, #168]	@ (8003a88 <OSInit+0x16c>)
 80039de:	4a2b      	ldr	r2, [pc, #172]	@ (8003a8c <OSInit+0x170>)
 80039e0:	6809      	ldr	r1, [r1, #0]
 80039e2:	6800      	ldr	r0, [r0, #0]
 80039e4:	6812      	ldr	r2, [r2, #0]
 80039e6:	9103      	str	r1, [sp, #12]
 80039e8:	240b      	movs	r4, #11
 80039ea:	211f      	movs	r1, #31
 80039ec:	e9cd 1000 	strd	r1, r0, [sp]
 80039f0:	e9cd 3305 	strd	r3, r3, [sp, #20]
 80039f4:	9304      	str	r3, [sp, #16]
 80039f6:	9202      	str	r2, [sp, #8]
 80039f8:	4619      	mov	r1, r3
 80039fa:	4a25      	ldr	r2, [pc, #148]	@ (8003a90 <OSInit+0x174>)
 80039fc:	4825      	ldr	r0, [pc, #148]	@ (8003a94 <OSInit+0x178>)
 80039fe:	9407      	str	r4, [sp, #28]
 8003a00:	9508      	str	r5, [sp, #32]
 8003a02:	f001 f87d 	bl	8004b00 <OSTaskCreate>
 8003a06:	882b      	ldrh	r3, [r5, #0]
 8003a08:	2b00      	cmp	r3, #0
 8003a0a:	d1d7      	bne.n	80039bc <OSInit+0xa0>
 8003a0c:	4628      	mov	r0, r5
 8003a0e:	f001 faad 	bl	8004f6c <OS_TickInit>
 8003a12:	882b      	ldrh	r3, [r5, #0]
 8003a14:	2b00      	cmp	r3, #0
 8003a16:	d1d1      	bne.n	80039bc <OSInit+0xa0>
 8003a18:	4628      	mov	r0, r5
 8003a1a:	f001 f815 	bl	8004a48 <OS_StatTaskInit>
 8003a1e:	882b      	ldrh	r3, [r5, #0]
 8003a20:	2b00      	cmp	r3, #0
 8003a22:	d1cb      	bne.n	80039bc <OSInit+0xa0>
 8003a24:	4628      	mov	r0, r5
 8003a26:	f001 fd19 	bl	800545c <OS_TmrInit>
 8003a2a:	882b      	ldrh	r3, [r5, #0]
 8003a2c:	2b00      	cmp	r3, #0
 8003a2e:	d1c5      	bne.n	80039bc <OSInit+0xa0>
 8003a30:	f7ff ff62 	bl	80038f8 <OSCfg_Init>
 8003a34:	4b18      	ldr	r3, [pc, #96]	@ (8003a98 <OSInit+0x17c>)
 8003a36:	2201      	movs	r2, #1
 8003a38:	701a      	strb	r2, [r3, #0]
 8003a3a:	e7bf      	b.n	80039bc <OSInit+0xa0>
 8003a3c:	080059e4 	.word	0x080059e4
 8003a40:	cccccccd 	.word	0xcccccccd
 8003a44:	08005a0c 	.word	0x08005a0c
 8003a48:	20001adc 	.word	0x20001adc
 8003a4c:	20001928 	.word	0x20001928
 8003a50:	20001be9 	.word	0x20001be9
 8003a54:	20001be8 	.word	0x20001be8
 8003a58:	20001ad9 	.word	0x20001ad9
 8003a5c:	08005a08 	.word	0x08005a08
 8003a60:	20001cb4 	.word	0x20001cb4
 8003a64:	20001cbc 	.word	0x20001cbc
 8003a68:	20001cb8 	.word	0x20001cb8
 8003a6c:	20001cc0 	.word	0x20001cc0
 8003a70:	20001cac 	.word	0x20001cac
 8003a74:	20001ca8 	.word	0x20001ca8
 8003a78:	20001a14 	.word	0x20001a14
 8003a7c:	20001cb0 	.word	0x20001cb0
 8003a80:	20001ae4 	.word	0x20001ae4
 8003a84:	08005a10 	.word	0x08005a10
 8003a88:	08005a18 	.word	0x08005a18
 8003a8c:	08005a14 	.word	0x08005a14
 8003a90:	080038fd 	.word	0x080038fd
 8003a94:	20001c00 	.word	0x20001c00
 8003a98:	20001bfc 	.word	0x20001bfc
 8003a9c:	20001bfe 	.word	0x20001bfe
 8003aa0:	20001bfd 	.word	0x20001bfd
 8003aa4:	20001ae0 	.word	0x20001ae0
 8003aa8:	2000192c 	.word	0x2000192c

08003aac <OSIntEnter>:
 8003aac:	4b05      	ldr	r3, [pc, #20]	@ (8003ac4 <OSIntEnter+0x18>)
 8003aae:	781b      	ldrb	r3, [r3, #0]
 8003ab0:	2b01      	cmp	r3, #1
 8003ab2:	d105      	bne.n	8003ac0 <OSIntEnter+0x14>
 8003ab4:	4a04      	ldr	r2, [pc, #16]	@ (8003ac8 <OSIntEnter+0x1c>)
 8003ab6:	7813      	ldrb	r3, [r2, #0]
 8003ab8:	2bf9      	cmp	r3, #249	@ 0xf9
 8003aba:	bf9c      	itt	ls
 8003abc:	3301      	addls	r3, #1
 8003abe:	7013      	strbls	r3, [r2, #0]
 8003ac0:	4770      	bx	lr
 8003ac2:	bf00      	nop
 8003ac4:	20001bfd 	.word	0x20001bfd
 8003ac8:	20001bfe 	.word	0x20001bfe

08003acc <OSIntExit>:
 8003acc:	4b18      	ldr	r3, [pc, #96]	@ (8003b30 <OSIntExit+0x64>)
 8003ace:	781b      	ldrb	r3, [r3, #0]
 8003ad0:	2b01      	cmp	r3, #1
 8003ad2:	d000      	beq.n	8003ad6 <OSIntExit+0xa>
 8003ad4:	4770      	bx	lr
 8003ad6:	b510      	push	{r4, lr}
 8003ad8:	2040      	movs	r0, #64	@ 0x40
 8003ada:	f7fc fb79 	bl	80001d0 <CPU_SR_Save>
 8003ade:	4a15      	ldr	r2, [pc, #84]	@ (8003b34 <OSIntExit+0x68>)
 8003ae0:	7813      	ldrb	r3, [r2, #0]
 8003ae2:	4604      	mov	r4, r0
 8003ae4:	b1fb      	cbz	r3, 8003b26 <OSIntExit+0x5a>
 8003ae6:	3b01      	subs	r3, #1
 8003ae8:	b2db      	uxtb	r3, r3
 8003aea:	7013      	strb	r3, [r2, #0]
 8003aec:	b9db      	cbnz	r3, 8003b26 <OSIntExit+0x5a>
 8003aee:	4b12      	ldr	r3, [pc, #72]	@ (8003b38 <OSIntExit+0x6c>)
 8003af0:	781b      	ldrb	r3, [r3, #0]
 8003af2:	b9c3      	cbnz	r3, 8003b26 <OSIntExit+0x5a>
 8003af4:	f000 fe98 	bl	8004828 <OS_PrioGetHighest>
 8003af8:	4b10      	ldr	r3, [pc, #64]	@ (8003b3c <OSIntExit+0x70>)
 8003afa:	4a11      	ldr	r2, [pc, #68]	@ (8003b40 <OSIntExit+0x74>)
 8003afc:	4911      	ldr	r1, [pc, #68]	@ (8003b44 <OSIntExit+0x78>)
 8003afe:	f853 3030 	ldr.w	r3, [r3, r0, lsl #3]
 8003b02:	6812      	ldr	r2, [r2, #0]
 8003b04:	7008      	strb	r0, [r1, #0]
 8003b06:	4910      	ldr	r1, [pc, #64]	@ (8003b48 <OSIntExit+0x7c>)
 8003b08:	4293      	cmp	r3, r2
 8003b0a:	600b      	str	r3, [r1, #0]
 8003b0c:	d00a      	beq.n	8003b24 <OSIntExit+0x58>
 8003b0e:	480f      	ldr	r0, [pc, #60]	@ (8003b4c <OSIntExit+0x80>)
 8003b10:	f8d3 1084 	ldr.w	r1, [r3, #132]	@ 0x84
 8003b14:	6802      	ldr	r2, [r0, #0]
 8003b16:	3101      	adds	r1, #1
 8003b18:	3201      	adds	r2, #1
 8003b1a:	f8c3 1084 	str.w	r1, [r3, #132]	@ 0x84
 8003b1e:	6002      	str	r2, [r0, #0]
 8003b20:	f7fc fbbb 	bl	800029a <OSCtxSw>
 8003b24:	4620      	mov	r0, r4
 8003b26:	e8bd 4010 	ldmia.w	sp!, {r4, lr}
 8003b2a:	f7fc bb5f 	b.w	80001ec <CPU_SR_Restore>
 8003b2e:	bf00      	nop
 8003b30:	20001bfd 	.word	0x20001bfd
 8003b34:	20001bfe 	.word	0x20001bfe
 8003b38:	20001ae0 	.word	0x20001ae0
 8003b3c:	20001ae4 	.word	0x20001ae4
 8003b40:	2000192c 	.word	0x2000192c
 8003b44:	20001be8 	.word	0x20001be8
 8003b48:	20001928 	.word	0x20001928
 8003b4c:	20001a18 	.word	0x20001a18

08003b50 <OSSched>:
 8003b50:	4b19      	ldr	r3, [pc, #100]	@ (8003bb8 <OSSched+0x68>)
 8003b52:	781b      	ldrb	r3, [r3, #0]
 8003b54:	2b01      	cmp	r3, #1
 8003b56:	d105      	bne.n	8003b64 <OSSched+0x14>
 8003b58:	4b18      	ldr	r3, [pc, #96]	@ (8003bbc <OSSched+0x6c>)
 8003b5a:	4a19      	ldr	r2, [pc, #100]	@ (8003bc0 <OSSched+0x70>)
 8003b5c:	781b      	ldrb	r3, [r3, #0]
 8003b5e:	7812      	ldrb	r2, [r2, #0]
 8003b60:	4313      	orrs	r3, r2
 8003b62:	d000      	beq.n	8003b66 <OSSched+0x16>
 8003b64:	4770      	bx	lr
 8003b66:	b510      	push	{r4, lr}
 8003b68:	2040      	movs	r0, #64	@ 0x40
 8003b6a:	f7fc fb31 	bl	80001d0 <CPU_SR_Save>
 8003b6e:	4604      	mov	r4, r0
 8003b70:	f000 fe5a 	bl	8004828 <OS_PrioGetHighest>
 8003b74:	4b13      	ldr	r3, [pc, #76]	@ (8003bc4 <OSSched+0x74>)
 8003b76:	4a14      	ldr	r2, [pc, #80]	@ (8003bc8 <OSSched+0x78>)
 8003b78:	4914      	ldr	r1, [pc, #80]	@ (8003bcc <OSSched+0x7c>)
 8003b7a:	f853 3030 	ldr.w	r3, [r3, r0, lsl #3]
 8003b7e:	6812      	ldr	r2, [r2, #0]
 8003b80:	7008      	strb	r0, [r1, #0]
 8003b82:	4913      	ldr	r1, [pc, #76]	@ (8003bd0 <OSSched+0x80>)
 8003b84:	4293      	cmp	r3, r2
 8003b86:	600b      	str	r3, [r1, #0]
 8003b88:	d010      	beq.n	8003bac <OSSched+0x5c>
 8003b8a:	4812      	ldr	r0, [pc, #72]	@ (8003bd4 <OSSched+0x84>)
 8003b8c:	f8d3 1084 	ldr.w	r1, [r3, #132]	@ 0x84
 8003b90:	6802      	ldr	r2, [r0, #0]
 8003b92:	3101      	adds	r1, #1
 8003b94:	3201      	adds	r2, #1
 8003b96:	f8c3 1084 	str.w	r1, [r3, #132]	@ 0x84
 8003b9a:	6002      	str	r2, [r0, #0]
 8003b9c:	f7fc fb7d 	bl	800029a <OSCtxSw>
 8003ba0:	4620      	mov	r0, r4
 8003ba2:	f7fc fb23 	bl	80001ec <CPU_SR_Restore>
 8003ba6:	f3bf 8f6f 	isb	sy
 8003baa:	bd10      	pop	{r4, pc}
 8003bac:	4620      	mov	r0, r4
 8003bae:	e8bd 4010 	ldmia.w	sp!, {r4, lr}
 8003bb2:	f7fc bb1b 	b.w	80001ec <CPU_SR_Restore>
 8003bb6:	bf00      	nop
 8003bb8:	20001bfd 	.word	0x20001bfd
 8003bbc:	20001bfe 	.word	0x20001bfe
 8003bc0:	20001ae0 	.word	0x20001ae0
 8003bc4:	20001ae4 	.word	0x20001ae4
 8003bc8:	2000192c 	.word	0x2000192c
 8003bcc:	20001be8 	.word	0x20001be8
 8003bd0:	20001928 	.word	0x20001928
 8003bd4:	20001a18 	.word	0x20001a18

08003bd8 <OSStart>:
 8003bd8:	b570      	push	{r4, r5, r6, lr}
 8003bda:	4b16      	ldr	r3, [pc, #88]	@ (8003c34 <OSStart+0x5c>)
 8003bdc:	781d      	ldrb	r5, [r3, #0]
 8003bde:	2d01      	cmp	r5, #1
 8003be0:	4604      	mov	r4, r0
 8003be2:	d10a      	bne.n	8003bfa <OSStart+0x22>
 8003be4:	4b14      	ldr	r3, [pc, #80]	@ (8003c38 <OSStart+0x60>)
 8003be6:	881b      	ldrh	r3, [r3, #0]
 8003be8:	2b03      	cmp	r3, #3
 8003bea:	d90a      	bls.n	8003c02 <OSStart+0x2a>
 8003bec:	4e13      	ldr	r6, [pc, #76]	@ (8003c3c <OSStart+0x64>)
 8003bee:	7833      	ldrb	r3, [r6, #0]
 8003bf0:	b15b      	cbz	r3, 8003c0a <OSStart+0x32>
 8003bf2:	f645 638a 	movw	r3, #24202	@ 0x5e8a
 8003bf6:	8023      	strh	r3, [r4, #0]
 8003bf8:	bd70      	pop	{r4, r5, r6, pc}
 8003bfa:	f645 638b 	movw	r3, #24203	@ 0x5e8b
 8003bfe:	8023      	strh	r3, [r4, #0]
 8003c00:	bd70      	pop	{r4, r5, r6, pc}
 8003c02:	f645 638c 	movw	r3, #24204	@ 0x5e8c
 8003c06:	8023      	strh	r3, [r4, #0]
 8003c08:	bd70      	pop	{r4, r5, r6, pc}
 8003c0a:	f000 fe0d 	bl	8004828 <OS_PrioGetHighest>
 8003c0e:	4a0c      	ldr	r2, [pc, #48]	@ (8003c40 <OSStart+0x68>)
 8003c10:	4b0c      	ldr	r3, [pc, #48]	@ (8003c44 <OSStart+0x6c>)
 8003c12:	7010      	strb	r0, [r2, #0]
 8003c14:	4a0c      	ldr	r2, [pc, #48]	@ (8003c48 <OSStart+0x70>)
 8003c16:	f853 3030 	ldr.w	r3, [r3, r0, lsl #3]
 8003c1a:	6013      	str	r3, [r2, #0]
 8003c1c:	490b      	ldr	r1, [pc, #44]	@ (8003c4c <OSStart+0x74>)
 8003c1e:	4a0c      	ldr	r2, [pc, #48]	@ (8003c50 <OSStart+0x78>)
 8003c20:	7035      	strb	r5, [r6, #0]
 8003c22:	6013      	str	r3, [r2, #0]
 8003c24:	7008      	strb	r0, [r1, #0]
 8003c26:	f7fc faf9 	bl	800021c <OSStartHighRdy>
 8003c2a:	f643 2399 	movw	r3, #15001	@ 0x3a99
 8003c2e:	8023      	strh	r3, [r4, #0]
 8003c30:	bd70      	pop	{r4, r5, r6, pc}
 8003c32:	bf00      	nop
 8003c34:	20001bfc 	.word	0x20001bfc
 8003c38:	20001a16 	.word	0x20001a16
 8003c3c:	20001bfd 	.word	0x20001bfd
 8003c40:	20001be8 	.word	0x20001be8
 8003c44:	20001ae4 	.word	0x20001ae4
 8003c48:	20001928 	.word	0x20001928
 8003c4c:	20001be9 	.word	0x20001be9
 8003c50:	2000192c 	.word	0x2000192c

08003c54 <OS_Pend>:
 8003c54:	b538      	push	{r3, r4, r5, lr}
 8003c56:	460c      	mov	r4, r1
 8003c58:	f881 202c 	strb.w	r2, [r1, #44]	@ 0x2c
 8003c5c:	2100      	movs	r1, #0
 8003c5e:	4605      	mov	r5, r0
 8003c60:	f884 102d 	strb.w	r1, [r4, #45]	@ 0x2d
 8003c64:	bb63      	cbnz	r3, 8003cc0 <OS_Pend+0x6c>
 8003c66:	2302      	movs	r3, #2
 8003c68:	6922      	ldr	r2, [r4, #16]
 8003c6a:	f884 302e 	strb.w	r3, [r4, #46]	@ 0x2e
 8003c6e:	f894 002f 	ldrb.w	r0, [r4, #47]	@ 0x2f
 8003c72:	68e3      	ldr	r3, [r4, #12]
 8003c74:	b35a      	cbz	r2, 8003cce <OS_Pend+0x7a>
 8003c76:	60d3      	str	r3, [r2, #12]
 8003c78:	b1bb      	cbz	r3, 8003caa <OS_Pend+0x56>
 8003c7a:	611a      	str	r2, [r3, #16]
 8003c7c:	2300      	movs	r3, #0
 8003c7e:	e9c4 3303 	strd	r3, r3, [r4, #12]
 8003c82:	b1dd      	cbz	r5, 8003cbc <OS_Pend+0x68>
 8003c84:	686b      	ldr	r3, [r5, #4]
 8003c86:	f894 102f 	ldrb.w	r1, [r4, #47]	@ 0x2f
 8003c8a:	62a5      	str	r5, [r4, #40]	@ 0x28
 8003c8c:	b913      	cbnz	r3, 8003c94 <OS_Pend+0x40>
 8003c8e:	e029      	b.n	8003ce4 <OS_Pend+0x90>
 8003c90:	6a1b      	ldr	r3, [r3, #32]
 8003c92:	b363      	cbz	r3, 8003cee <OS_Pend+0x9a>
 8003c94:	f893 202f 	ldrb.w	r2, [r3, #47]	@ 0x2f
 8003c98:	428a      	cmp	r2, r1
 8003c9a:	d9f9      	bls.n	8003c90 <OS_Pend+0x3c>
 8003c9c:	6a5a      	ldr	r2, [r3, #36]	@ 0x24
 8003c9e:	b1e2      	cbz	r2, 8003cda <OS_Pend+0x86>
 8003ca0:	e9c4 3208 	strd	r3, r2, [r4, #32]
 8003ca4:	6214      	str	r4, [r2, #32]
 8003ca6:	625c      	str	r4, [r3, #36]	@ 0x24
 8003ca8:	bd38      	pop	{r3, r4, r5, pc}
 8003caa:	4b18      	ldr	r3, [pc, #96]	@ (8003d0c <OS_Pend+0xb8>)
 8003cac:	eb03 03c0 	add.w	r3, r3, r0, lsl #3
 8003cb0:	605a      	str	r2, [r3, #4]
 8003cb2:	2300      	movs	r3, #0
 8003cb4:	e9c4 3303 	strd	r3, r3, [r4, #12]
 8003cb8:	2d00      	cmp	r5, #0
 8003cba:	d1e3      	bne.n	8003c84 <OS_Pend+0x30>
 8003cbc:	62a5      	str	r5, [r4, #40]	@ 0x28
 8003cbe:	bd38      	pop	{r3, r4, r5, pc}
 8003cc0:	4a13      	ldr	r2, [pc, #76]	@ (8003d10 <OS_Pend+0xbc>)
 8003cc2:	4620      	mov	r0, r4
 8003cc4:	6812      	ldr	r2, [r2, #0]
 8003cc6:	f001 f9fb 	bl	80050c0 <OS_TickListInsert>
 8003cca:	2303      	movs	r3, #3
 8003ccc:	e7cc      	b.n	8003c68 <OS_Pend+0x14>
 8003cce:	b1a3      	cbz	r3, 8003cfa <OS_Pend+0xa6>
 8003cd0:	611a      	str	r2, [r3, #16]
 8003cd2:	4a0e      	ldr	r2, [pc, #56]	@ (8003d0c <OS_Pend+0xb8>)
 8003cd4:	f842 3030 	str.w	r3, [r2, r0, lsl #3]
 8003cd8:	e7d0      	b.n	8003c7c <OS_Pend+0x28>
 8003cda:	e9c4 3208 	strd	r3, r2, [r4, #32]
 8003cde:	625c      	str	r4, [r3, #36]	@ 0x24
 8003ce0:	606c      	str	r4, [r5, #4]
 8003ce2:	bd38      	pop	{r3, r4, r5, pc}
 8003ce4:	e9c4 3308 	strd	r3, r3, [r4, #32]
 8003ce8:	e9c5 4401 	strd	r4, r4, [r5, #4]
 8003cec:	bd38      	pop	{r3, r4, r5, pc}
 8003cee:	68aa      	ldr	r2, [r5, #8]
 8003cf0:	e9c4 3208 	strd	r3, r2, [r4, #32]
 8003cf4:	6214      	str	r4, [r2, #32]
 8003cf6:	60ac      	str	r4, [r5, #8]
 8003cf8:	bd38      	pop	{r3, r4, r5, pc}
 8003cfa:	4a04      	ldr	r2, [pc, #16]	@ (8003d0c <OS_Pend+0xb8>)
 8003cfc:	f842 3030 	str.w	r3, [r2, r0, lsl #3]
 8003d00:	eb02 02c0 	add.w	r2, r2, r0, lsl #3
 8003d04:	6053      	str	r3, [r2, #4]
 8003d06:	f000 fda3 	bl	8004850 <OS_PrioRemove>
 8003d0a:	e7b7      	b.n	8003c7c <OS_Pend+0x28>
 8003d0c:	20001ae4 	.word	0x20001ae4
 8003d10:	20001a10 	.word	0x20001a10

08003d14 <OS_PendListChangePrio>:
 8003d14:	b430      	push	{r4, r5}
 8003d16:	6a84      	ldr	r4, [r0, #40]	@ 0x28
 8003d18:	6863      	ldr	r3, [r4, #4]
 8003d1a:	6a1a      	ldr	r2, [r3, #32]
 8003d1c:	b1c2      	cbz	r2, 8003d50 <OS_PendListChangePrio+0x3c>
 8003d1e:	e9d0 5208 	ldrd	r5, r2, [r0, #32]
 8003d22:	b1ba      	cbz	r2, 8003d54 <OS_PendListChangePrio+0x40>
 8003d24:	6215      	str	r5, [r2, #32]
 8003d26:	b345      	cbz	r5, 8003d7a <OS_PendListChangePrio+0x66>
 8003d28:	626a      	str	r2, [r5, #36]	@ 0x24
 8003d2a:	2200      	movs	r2, #0
 8003d2c:	e9c0 2208 	strd	r2, r2, [r0, #32]
 8003d30:	f890 102f 	ldrb.w	r1, [r0, #47]	@ 0x2f
 8003d34:	6284      	str	r4, [r0, #40]	@ 0x28
 8003d36:	e001      	b.n	8003d3c <OS_PendListChangePrio+0x28>
 8003d38:	6a1b      	ldr	r3, [r3, #32]
 8003d3a:	b1a3      	cbz	r3, 8003d66 <OS_PendListChangePrio+0x52>
 8003d3c:	f893 202f 	ldrb.w	r2, [r3, #47]	@ 0x2f
 8003d40:	428a      	cmp	r2, r1
 8003d42:	d9f9      	bls.n	8003d38 <OS_PendListChangePrio+0x24>
 8003d44:	6a5a      	ldr	r2, [r3, #36]	@ 0x24
 8003d46:	b1a2      	cbz	r2, 8003d72 <OS_PendListChangePrio+0x5e>
 8003d48:	e9c0 3208 	strd	r3, r2, [r0, #32]
 8003d4c:	6210      	str	r0, [r2, #32]
 8003d4e:	6258      	str	r0, [r3, #36]	@ 0x24
 8003d50:	bc30      	pop	{r4, r5}
 8003d52:	4770      	bx	lr
 8003d54:	626a      	str	r2, [r5, #36]	@ 0x24
 8003d56:	6065      	str	r5, [r4, #4]
 8003d58:	f890 102f 	ldrb.w	r1, [r0, #47]	@ 0x2f
 8003d5c:	6284      	str	r4, [r0, #40]	@ 0x28
 8003d5e:	e9c0 2208 	strd	r2, r2, [r0, #32]
 8003d62:	462b      	mov	r3, r5
 8003d64:	e7ea      	b.n	8003d3c <OS_PendListChangePrio+0x28>
 8003d66:	68a3      	ldr	r3, [r4, #8]
 8003d68:	6243      	str	r3, [r0, #36]	@ 0x24
 8003d6a:	6218      	str	r0, [r3, #32]
 8003d6c:	60a0      	str	r0, [r4, #8]
 8003d6e:	bc30      	pop	{r4, r5}
 8003d70:	4770      	bx	lr
 8003d72:	6203      	str	r3, [r0, #32]
 8003d74:	6258      	str	r0, [r3, #36]	@ 0x24
 8003d76:	6060      	str	r0, [r4, #4]
 8003d78:	e7ea      	b.n	8003d50 <OS_PendListChangePrio+0x3c>
 8003d7a:	60a2      	str	r2, [r4, #8]
 8003d7c:	e7d5      	b.n	8003d2a <OS_PendListChangePrio+0x16>
 8003d7e:	bf00      	nop

08003d80 <OS_PendListInit>:
 8003d80:	2300      	movs	r3, #0
 8003d82:	e9c0 3300 	strd	r3, r3, [r0]
 8003d86:	4770      	bx	lr

08003d88 <OS_PendListRemove>:
 8003d88:	6a83      	ldr	r3, [r0, #40]	@ 0x28
 8003d8a:	b163      	cbz	r3, 8003da6 <OS_PendListRemove+0x1e>
 8003d8c:	685a      	ldr	r2, [r3, #4]
 8003d8e:	6a12      	ldr	r2, [r2, #32]
 8003d90:	b152      	cbz	r2, 8003da8 <OS_PendListRemove+0x20>
 8003d92:	e9d0 1208 	ldrd	r1, r2, [r0, #32]
 8003d96:	b152      	cbz	r2, 8003dae <OS_PendListRemove+0x26>
 8003d98:	6211      	str	r1, [r2, #32]
 8003d9a:	b159      	cbz	r1, 8003db4 <OS_PendListRemove+0x2c>
 8003d9c:	624a      	str	r2, [r1, #36]	@ 0x24
 8003d9e:	2300      	movs	r3, #0
 8003da0:	e9c0 3308 	strd	r3, r3, [r0, #32]
 8003da4:	6283      	str	r3, [r0, #40]	@ 0x28
 8003da6:	4770      	bx	lr
 8003da8:	e9c3 2201 	strd	r2, r2, [r3, #4]
 8003dac:	e7f7      	b.n	8003d9e <OS_PendListRemove+0x16>
 8003dae:	624a      	str	r2, [r1, #36]	@ 0x24
 8003db0:	6059      	str	r1, [r3, #4]
 8003db2:	e7f4      	b.n	8003d9e <OS_PendListRemove+0x16>
 8003db4:	609a      	str	r2, [r3, #8]
 8003db6:	e7f2      	b.n	8003d9e <OS_PendListRemove+0x16>

08003db8 <OS_Post>:
 8003db8:	b510      	push	{r4, lr}
 8003dba:	460c      	mov	r4, r1
 8003dbc:	f891 102e 	ldrb.w	r1, [r1, #46]	@ 0x2e
 8003dc0:	2903      	cmp	r1, #3
 8003dc2:	d922      	bls.n	8003e0a <OS_Post+0x52>
 8003dc4:	f1a1 0c06 	sub.w	ip, r1, #6
 8003dc8:	f1bc 0f01 	cmp.w	ip, #1
 8003dcc:	d81c      	bhi.n	8003e08 <OS_Post+0x50>
 8003dce:	6562      	str	r2, [r4, #84]	@ 0x54
 8003dd0:	f8a4 3058 	strh.w	r3, [r4, #88]	@ 0x58
 8003dd4:	b188      	cbz	r0, 8003dfa <OS_Post+0x42>
 8003dd6:	6aa3      	ldr	r3, [r4, #40]	@ 0x28
 8003dd8:	b17b      	cbz	r3, 8003dfa <OS_Post+0x42>
 8003dda:	685a      	ldr	r2, [r3, #4]
 8003ddc:	6a12      	ldr	r2, [r2, #32]
 8003dde:	2a00      	cmp	r2, #0
 8003de0:	d067      	beq.n	8003eb2 <OS_Post+0xfa>
 8003de2:	e9d4 0208 	ldrd	r0, r2, [r4, #32]
 8003de6:	2a00      	cmp	r2, #0
 8003de8:	d074      	beq.n	8003ed4 <OS_Post+0x11c>
 8003dea:	6210      	str	r0, [r2, #32]
 8003dec:	2800      	cmp	r0, #0
 8003dee:	d05c      	beq.n	8003eaa <OS_Post+0xf2>
 8003df0:	6242      	str	r2, [r0, #36]	@ 0x24
 8003df2:	2300      	movs	r3, #0
 8003df4:	e9c4 3308 	strd	r3, r3, [r4, #32]
 8003df8:	62a3      	str	r3, [r4, #40]	@ 0x28
 8003dfa:	2907      	cmp	r1, #7
 8003dfc:	d04d      	beq.n	8003e9a <OS_Post+0xe2>
 8003dfe:	2204      	movs	r2, #4
 8003e00:	2300      	movs	r3, #0
 8003e02:	f884 202e 	strb.w	r2, [r4, #46]	@ 0x2e
 8003e06:	85a3      	strh	r3, [r4, #44]	@ 0x2c
 8003e08:	bd10      	pop	{r4, pc}
 8003e0a:	2901      	cmp	r1, #1
 8003e0c:	d9fc      	bls.n	8003e08 <OS_Post+0x50>
 8003e0e:	6562      	str	r2, [r4, #84]	@ 0x54
 8003e10:	f8a4 3058 	strh.w	r3, [r4, #88]	@ 0x58
 8003e14:	b188      	cbz	r0, 8003e3a <OS_Post+0x82>
 8003e16:	6aa3      	ldr	r3, [r4, #40]	@ 0x28
 8003e18:	b17b      	cbz	r3, 8003e3a <OS_Post+0x82>
 8003e1a:	685a      	ldr	r2, [r3, #4]
 8003e1c:	6a12      	ldr	r2, [r2, #32]
 8003e1e:	2a00      	cmp	r2, #0
 8003e20:	d04a      	beq.n	8003eb8 <OS_Post+0x100>
 8003e22:	e9d4 0208 	ldrd	r0, r2, [r4, #32]
 8003e26:	2a00      	cmp	r2, #0
 8003e28:	d051      	beq.n	8003ece <OS_Post+0x116>
 8003e2a:	6210      	str	r0, [r2, #32]
 8003e2c:	2800      	cmp	r0, #0
 8003e2e:	d03e      	beq.n	8003eae <OS_Post+0xf6>
 8003e30:	6242      	str	r2, [r0, #36]	@ 0x24
 8003e32:	2300      	movs	r3, #0
 8003e34:	e9c4 3308 	strd	r3, r3, [r4, #32]
 8003e38:	62a3      	str	r3, [r4, #40]	@ 0x28
 8003e3a:	2903      	cmp	r1, #3
 8003e3c:	d031      	beq.n	8003ea2 <OS_Post+0xea>
 8003e3e:	f894 002f 	ldrb.w	r0, [r4, #47]	@ 0x2f
 8003e42:	f000 fcfb 	bl	800483c <OS_PrioInsert>
 8003e46:	4a25      	ldr	r2, [pc, #148]	@ (8003edc <OS_Post+0x124>)
 8003e48:	f894 302f 	ldrb.w	r3, [r4, #47]	@ 0x2f
 8003e4c:	7812      	ldrb	r2, [r2, #0]
 8003e4e:	429a      	cmp	r2, r3
 8003e50:	d016      	beq.n	8003e80 <OS_Post+0xc8>
 8003e52:	4923      	ldr	r1, [pc, #140]	@ (8003ee0 <OS_Post+0x128>)
 8003e54:	f851 2033 	ldr.w	r2, [r1, r3, lsl #3]
 8003e58:	b152      	cbz	r2, 8003e70 <OS_Post+0xb8>
 8003e5a:	2000      	movs	r0, #0
 8003e5c:	e9c4 2003 	strd	r2, r0, [r4, #12]
 8003e60:	6114      	str	r4, [r2, #16]
 8003e62:	f841 4033 	str.w	r4, [r1, r3, lsl #3]
 8003e66:	2300      	movs	r3, #0
 8003e68:	f884 302e 	strb.w	r3, [r4, #46]	@ 0x2e
 8003e6c:	85a3      	strh	r3, [r4, #44]	@ 0x2c
 8003e6e:	bd10      	pop	{r4, pc}
 8003e70:	eb01 00c3 	add.w	r0, r1, r3, lsl #3
 8003e74:	e9c4 2203 	strd	r2, r2, [r4, #12]
 8003e78:	f841 4033 	str.w	r4, [r1, r3, lsl #3]
 8003e7c:	6044      	str	r4, [r0, #4]
 8003e7e:	e7f2      	b.n	8003e66 <OS_Post+0xae>
 8003e80:	4b17      	ldr	r3, [pc, #92]	@ (8003ee0 <OS_Post+0x128>)
 8003e82:	f853 1032 	ldr.w	r1, [r3, r2, lsl #3]
 8003e86:	b1d1      	cbz	r1, 8003ebe <OS_Post+0x106>
 8003e88:	eb03 03c2 	add.w	r3, r3, r2, lsl #3
 8003e8c:	2100      	movs	r1, #0
 8003e8e:	685a      	ldr	r2, [r3, #4]
 8003e90:	e9c4 1203 	strd	r1, r2, [r4, #12]
 8003e94:	60d4      	str	r4, [r2, #12]
 8003e96:	605c      	str	r4, [r3, #4]
 8003e98:	e7e5      	b.n	8003e66 <OS_Post+0xae>
 8003e9a:	4620      	mov	r0, r4
 8003e9c:	f001 f9c0 	bl	8005220 <OS_TickListRemove>
 8003ea0:	e7ad      	b.n	8003dfe <OS_Post+0x46>
 8003ea2:	4620      	mov	r0, r4
 8003ea4:	f001 f9bc 	bl	8005220 <OS_TickListRemove>
 8003ea8:	e7c9      	b.n	8003e3e <OS_Post+0x86>
 8003eaa:	609a      	str	r2, [r3, #8]
 8003eac:	e7a1      	b.n	8003df2 <OS_Post+0x3a>
 8003eae:	609a      	str	r2, [r3, #8]
 8003eb0:	e7bf      	b.n	8003e32 <OS_Post+0x7a>
 8003eb2:	e9c3 2201 	strd	r2, r2, [r3, #4]
 8003eb6:	e79c      	b.n	8003df2 <OS_Post+0x3a>
 8003eb8:	e9c3 2201 	strd	r2, r2, [r3, #4]
 8003ebc:	e7b9      	b.n	8003e32 <OS_Post+0x7a>
 8003ebe:	eb03 00c2 	add.w	r0, r3, r2, lsl #3
 8003ec2:	e9c4 1103 	strd	r1, r1, [r4, #12]
 8003ec6:	f843 4032 	str.w	r4, [r3, r2, lsl #3]
 8003eca:	6044      	str	r4, [r0, #4]
 8003ecc:	e7cb      	b.n	8003e66 <OS_Post+0xae>
 8003ece:	6242      	str	r2, [r0, #36]	@ 0x24
 8003ed0:	6058      	str	r0, [r3, #4]
 8003ed2:	e7ae      	b.n	8003e32 <OS_Post+0x7a>
 8003ed4:	6242      	str	r2, [r0, #36]	@ 0x24
 8003ed6:	6058      	str	r0, [r3, #4]
 8003ed8:	e78b      	b.n	8003df2 <OS_Post+0x3a>
 8003eda:	bf00      	nop
 8003edc:	20001be9 	.word	0x20001be9
 8003ee0:	20001ae4 	.word	0x20001ae4

08003ee4 <OS_RdyListInsert>:
 8003ee4:	b510      	push	{r4, lr}
 8003ee6:	4604      	mov	r4, r0
 8003ee8:	f890 002f 	ldrb.w	r0, [r0, #47]	@ 0x2f
 8003eec:	f000 fca6 	bl	800483c <OS_PrioInsert>
 8003ef0:	4a16      	ldr	r2, [pc, #88]	@ (8003f4c <OS_RdyListInsert+0x68>)
 8003ef2:	f894 302f 	ldrb.w	r3, [r4, #47]	@ 0x2f
 8003ef6:	7812      	ldrb	r2, [r2, #0]
 8003ef8:	429a      	cmp	r2, r3
 8003efa:	d00a      	beq.n	8003f12 <OS_RdyListInsert+0x2e>
 8003efc:	4914      	ldr	r1, [pc, #80]	@ (8003f50 <OS_RdyListInsert+0x6c>)
 8003efe:	f851 2033 	ldr.w	r2, [r1, r3, lsl #3]
 8003f02:	b19a      	cbz	r2, 8003f2c <OS_RdyListInsert+0x48>
 8003f04:	2000      	movs	r0, #0
 8003f06:	e9c4 2003 	strd	r2, r0, [r4, #12]
 8003f0a:	6114      	str	r4, [r2, #16]
 8003f0c:	f841 4033 	str.w	r4, [r1, r3, lsl #3]
 8003f10:	bd10      	pop	{r4, pc}
 8003f12:	4b0f      	ldr	r3, [pc, #60]	@ (8003f50 <OS_RdyListInsert+0x6c>)
 8003f14:	f853 1032 	ldr.w	r1, [r3, r2, lsl #3]
 8003f18:	b181      	cbz	r1, 8003f3c <OS_RdyListInsert+0x58>
 8003f1a:	eb03 03c2 	add.w	r3, r3, r2, lsl #3
 8003f1e:	2100      	movs	r1, #0
 8003f20:	685a      	ldr	r2, [r3, #4]
 8003f22:	e9c4 1203 	strd	r1, r2, [r4, #12]
 8003f26:	60d4      	str	r4, [r2, #12]
 8003f28:	605c      	str	r4, [r3, #4]
 8003f2a:	bd10      	pop	{r4, pc}
 8003f2c:	eb01 00c3 	add.w	r0, r1, r3, lsl #3
 8003f30:	e9c4 2203 	strd	r2, r2, [r4, #12]
 8003f34:	f841 4033 	str.w	r4, [r1, r3, lsl #3]
 8003f38:	6044      	str	r4, [r0, #4]
 8003f3a:	bd10      	pop	{r4, pc}
 8003f3c:	eb03 00c2 	add.w	r0, r3, r2, lsl #3
 8003f40:	e9c4 1103 	strd	r1, r1, [r4, #12]
 8003f44:	f843 4032 	str.w	r4, [r3, r2, lsl #3]
 8003f48:	6044      	str	r4, [r0, #4]
 8003f4a:	bd10      	pop	{r4, pc}
 8003f4c:	20001be9 	.word	0x20001be9
 8003f50:	20001ae4 	.word	0x20001ae4

08003f54 <OS_RdyListInsertHead>:
 8003f54:	4a0c      	ldr	r2, [pc, #48]	@ (8003f88 <OS_RdyListInsertHead+0x34>)
 8003f56:	f890 102f 	ldrb.w	r1, [r0, #47]	@ 0x2f
 8003f5a:	f852 3031 	ldr.w	r3, [r2, r1, lsl #3]
 8003f5e:	b410      	push	{r4}
 8003f60:	b143      	cbz	r3, 8003f74 <OS_RdyListInsertHead+0x20>
 8003f62:	2400      	movs	r4, #0
 8003f64:	e9c0 3403 	strd	r3, r4, [r0, #12]
 8003f68:	6118      	str	r0, [r3, #16]
 8003f6a:	f85d 4b04 	ldr.w	r4, [sp], #4
 8003f6e:	f842 0031 	str.w	r0, [r2, r1, lsl #3]
 8003f72:	4770      	bx	lr
 8003f74:	eb02 04c1 	add.w	r4, r2, r1, lsl #3
 8003f78:	e9c0 3303 	strd	r3, r3, [r0, #12]
 8003f7c:	f842 0031 	str.w	r0, [r2, r1, lsl #3]
 8003f80:	6060      	str	r0, [r4, #4]
 8003f82:	f85d 4b04 	ldr.w	r4, [sp], #4
 8003f86:	4770      	bx	lr
 8003f88:	20001ae4 	.word	0x20001ae4

08003f8c <OS_RdyListInsertTail>:
 8003f8c:	4b0e      	ldr	r3, [pc, #56]	@ (8003fc8 <OS_RdyListInsertTail+0x3c>)
 8003f8e:	f890 202f 	ldrb.w	r2, [r0, #47]	@ 0x2f
 8003f92:	f853 1032 	ldr.w	r1, [r3, r2, lsl #3]
 8003f96:	b171      	cbz	r1, 8003fb6 <OS_RdyListInsertTail+0x2a>
 8003f98:	eb03 01c2 	add.w	r1, r3, r2, lsl #3
 8003f9c:	ea4f 0cc2 	mov.w	ip, r2, lsl #3
 8003fa0:	6849      	ldr	r1, [r1, #4]
 8003fa2:	4463      	add	r3, ip
 8003fa4:	b410      	push	{r4}
 8003fa6:	2400      	movs	r4, #0
 8003fa8:	e9c0 4103 	strd	r4, r1, [r0, #12]
 8003fac:	60c8      	str	r0, [r1, #12]
 8003fae:	f85d 4b04 	ldr.w	r4, [sp], #4
 8003fb2:	6058      	str	r0, [r3, #4]
 8003fb4:	4770      	bx	lr
 8003fb6:	ea4f 0cc2 	mov.w	ip, r2, lsl #3
 8003fba:	e9c0 1103 	strd	r1, r1, [r0, #12]
 8003fbe:	f843 0032 	str.w	r0, [r3, r2, lsl #3]
 8003fc2:	4463      	add	r3, ip
 8003fc4:	6058      	str	r0, [r3, #4]
 8003fc6:	4770      	bx	lr
 8003fc8:	20001ae4 	.word	0x20001ae4

08003fcc <OS_RdyListRemove>:
 8003fcc:	b510      	push	{r4, lr}
 8003fce:	6902      	ldr	r2, [r0, #16]
 8003fd0:	4604      	mov	r4, r0
 8003fd2:	f890 002f 	ldrb.w	r0, [r0, #47]	@ 0x2f
 8003fd6:	68e3      	ldr	r3, [r4, #12]
 8003fd8:	b172      	cbz	r2, 8003ff8 <OS_RdyListRemove+0x2c>
 8003fda:	60d3      	str	r3, [r2, #12]
 8003fdc:	b123      	cbz	r3, 8003fe8 <OS_RdyListRemove+0x1c>
 8003fde:	611a      	str	r2, [r3, #16]
 8003fe0:	2300      	movs	r3, #0
 8003fe2:	e9c4 3303 	strd	r3, r3, [r4, #12]
 8003fe6:	bd10      	pop	{r4, pc}
 8003fe8:	4b0c      	ldr	r3, [pc, #48]	@ (800401c <OS_RdyListRemove+0x50>)
 8003fea:	eb03 03c0 	add.w	r3, r3, r0, lsl #3
 8003fee:	605a      	str	r2, [r3, #4]
 8003ff0:	2300      	movs	r3, #0
 8003ff2:	e9c4 3303 	strd	r3, r3, [r4, #12]
 8003ff6:	bd10      	pop	{r4, pc}
 8003ff8:	b13b      	cbz	r3, 800400a <OS_RdyListRemove+0x3e>
 8003ffa:	4908      	ldr	r1, [pc, #32]	@ (800401c <OS_RdyListRemove+0x50>)
 8003ffc:	611a      	str	r2, [r3, #16]
 8003ffe:	f841 3030 	str.w	r3, [r1, r0, lsl #3]
 8004002:	2300      	movs	r3, #0
 8004004:	e9c4 3303 	strd	r3, r3, [r4, #12]
 8004008:	bd10      	pop	{r4, pc}
 800400a:	4a04      	ldr	r2, [pc, #16]	@ (800401c <OS_RdyListRemove+0x50>)
 800400c:	eb02 01c0 	add.w	r1, r2, r0, lsl #3
 8004010:	f842 3030 	str.w	r3, [r2, r0, lsl #3]
 8004014:	604b      	str	r3, [r1, #4]
 8004016:	f000 fc1b 	bl	8004850 <OS_PrioRemove>
 800401a:	e7e1      	b.n	8003fe0 <OS_RdyListRemove+0x14>
 800401c:	20001ae4 	.word	0x20001ae4

08004020 <OS_SchedRoundRobin>:
 8004020:	b538      	push	{r3, r4, r5, lr}
 8004022:	4b18      	ldr	r3, [pc, #96]	@ (8004084 <OS_SchedRoundRobin+0x64>)
 8004024:	781b      	ldrb	r3, [r3, #0]
 8004026:	2b01      	cmp	r3, #1
 8004028:	d000      	beq.n	800402c <OS_SchedRoundRobin+0xc>
 800402a:	bd38      	pop	{r3, r4, r5, pc}
 800402c:	4604      	mov	r4, r0
 800402e:	2040      	movs	r0, #64	@ 0x40
 8004030:	f7fc f8ce 	bl	80001d0 <CPU_SR_Save>
 8004034:	6823      	ldr	r3, [r4, #0]
 8004036:	4602      	mov	r2, r0
 8004038:	b1fb      	cbz	r3, 800407a <OS_SchedRoundRobin+0x5a>
 800403a:	4913      	ldr	r1, [pc, #76]	@ (8004088 <OS_SchedRoundRobin+0x68>)
 800403c:	428b      	cmp	r3, r1
 800403e:	d01c      	beq.n	800407a <OS_SchedRoundRobin+0x5a>
 8004040:	6d19      	ldr	r1, [r3, #80]	@ 0x50
 8004042:	b111      	cbz	r1, 800404a <OS_SchedRoundRobin+0x2a>
 8004044:	3901      	subs	r1, #1
 8004046:	6519      	str	r1, [r3, #80]	@ 0x50
 8004048:	b9b9      	cbnz	r1, 800407a <OS_SchedRoundRobin+0x5a>
 800404a:	6861      	ldr	r1, [r4, #4]
 800404c:	4299      	cmp	r1, r3
 800404e:	d013      	beq.n	8004078 <OS_SchedRoundRobin+0x58>
 8004050:	480e      	ldr	r0, [pc, #56]	@ (800408c <OS_SchedRoundRobin+0x6c>)
 8004052:	7805      	ldrb	r5, [r0, #0]
 8004054:	b985      	cbnz	r5, 8004078 <OS_SchedRoundRobin+0x58>
 8004056:	68d8      	ldr	r0, [r3, #12]
 8004058:	4281      	cmp	r1, r0
 800405a:	bf0b      	itete	eq
 800405c:	e9c3 5103 	strdeq	r5, r1, [r3, #12]
 8004060:	6105      	strne	r5, [r0, #16]
 8004062:	610d      	streq	r5, [r1, #16]
 8004064:	e9c3 5103 	strdne	r5, r1, [r3, #12]
 8004068:	60cb      	str	r3, [r1, #12]
 800406a:	6cc1      	ldr	r1, [r0, #76]	@ 0x4c
 800406c:	e9c4 0300 	strd	r0, r3, [r4]
 8004070:	b909      	cbnz	r1, 8004076 <OS_SchedRoundRobin+0x56>
 8004072:	4b07      	ldr	r3, [pc, #28]	@ (8004090 <OS_SchedRoundRobin+0x70>)
 8004074:	6819      	ldr	r1, [r3, #0]
 8004076:	6501      	str	r1, [r0, #80]	@ 0x50
 8004078:	4610      	mov	r0, r2
 800407a:	e8bd 4038 	ldmia.w	sp!, {r3, r4, r5, lr}
 800407e:	f7fc b8b5 	b.w	80001ec <CPU_SR_Restore>
 8004082:	bf00      	nop
 8004084:	20001ad9 	.word	0x20001ad9
 8004088:	20001c00 	.word	0x20001c00
 800408c:	20001ae0 	.word	0x20001ae0
 8004090:	20001adc 	.word	0x20001adc

08004094 <OSFlagCreate>:
 8004094:	e92d 41f0 	stmdb	sp!, {r4, r5, r6, r7, r8, lr}
 8004098:	4914      	ldr	r1, [pc, #80]	@ (80040ec <OSFlagCreate+0x58>)
 800409a:	780d      	ldrb	r5, [r1, #0]
 800409c:	461e      	mov	r6, r3
 800409e:	b9d5      	cbnz	r5, 80040d6 <OSFlagCreate+0x42>
 80040a0:	4604      	mov	r4, r0
 80040a2:	b198      	cbz	r0, 80040cc <OSFlagCreate+0x38>
 80040a4:	2040      	movs	r0, #64	@ 0x40
 80040a6:	4617      	mov	r7, r2
 80040a8:	f7fc f892 	bl	80001d0 <CPU_SR_Save>
 80040ac:	4b10      	ldr	r3, [pc, #64]	@ (80040f0 <OSFlagCreate+0x5c>)
 80040ae:	6822      	ldr	r2, [r4, #0]
 80040b0:	429a      	cmp	r2, r3
 80040b2:	4680      	mov	r8, r0
 80040b4:	d014      	beq.n	80040e0 <OSFlagCreate+0x4c>
 80040b6:	1d20      	adds	r0, r4, #4
 80040b8:	6023      	str	r3, [r4, #0]
 80040ba:	60e7      	str	r7, [r4, #12]
 80040bc:	f7ff fe60 	bl	8003d80 <OS_PendListInit>
 80040c0:	4640      	mov	r0, r8
 80040c2:	f7fc f893 	bl	80001ec <CPU_SR_Restore>
 80040c6:	8035      	strh	r5, [r6, #0]
 80040c8:	e8bd 81f0 	ldmia.w	sp!, {r4, r5, r6, r7, r8, pc}
 80040cc:	f645 55c3 	movw	r5, #24003	@ 0x5dc3
 80040d0:	8035      	strh	r5, [r6, #0]
 80040d2:	e8bd 81f0 	ldmia.w	sp!, {r4, r5, r6, r7, r8, pc}
 80040d6:	f642 65e1 	movw	r5, #12001	@ 0x2ee1
 80040da:	8035      	strh	r5, [r6, #0]
 80040dc:	e8bd 81f0 	ldmia.w	sp!, {r4, r5, r6, r7, r8, pc}
 80040e0:	f7fc f884 	bl	80001ec <CPU_SR_Restore>
 80040e4:	f645 55c1 	movw	r5, #24001	@ 0x5dc1
 80040e8:	e7ed      	b.n	80040c6 <OSFlagCreate+0x32>
 80040ea:	bf00      	nop
 80040ec:	20001bfe 	.word	0x20001bfe
 80040f0:	47414c46 	.word	0x47414c46

080040f4 <OSFlagPend>:
 80040f4:	e92d 43f0 	stmdb	sp!, {r4, r5, r6, r7, r8, r9, lr}
 80040f8:	4c91      	ldr	r4, [pc, #580]	@ (8004340 <OSFlagPend+0x24c>)
 80040fa:	7825      	ldrb	r5, [r4, #0]
 80040fc:	b083      	sub	sp, #12
 80040fe:	4606      	mov	r6, r0
 8004100:	461c      	mov	r4, r3
 8004102:	b10d      	cbz	r5, 8004108 <OSFlagPend+0x14>
 8004104:	041d      	lsls	r5, r3, #16
 8004106:	d541      	bpl.n	800418c <OSFlagPend+0x98>
 8004108:	4b8e      	ldr	r3, [pc, #568]	@ (8004344 <OSFlagPend+0x250>)
 800410a:	781b      	ldrb	r3, [r3, #0]
 800410c:	2b01      	cmp	r3, #1
 800410e:	d134      	bne.n	800417a <OSFlagPend+0x86>
 8004110:	2e00      	cmp	r6, #0
 8004112:	d06a      	beq.n	80041ea <OSFlagPend+0xf6>
 8004114:	f248 0308 	movw	r3, #32776	@ 0x8008
 8004118:	429c      	cmp	r4, r3
 800411a:	d852      	bhi.n	80041c2 <OSFlagPend+0xce>
 800411c:	f5b4 4f00 	cmp.w	r4, #32768	@ 0x8000
 8004120:	d843      	bhi.n	80041aa <OSFlagPend+0xb6>
 8004122:	2c08      	cmp	r4, #8
 8004124:	d935      	bls.n	8004192 <OSFlagPend+0x9e>
 8004126:	f46f 7080 	mvn.w	r0, #256	@ 0x100
 800412a:	1823      	adds	r3, r4, r0
 800412c:	b29b      	uxth	r3, r3
 800412e:	2b07      	cmp	r3, #7
 8004130:	d830      	bhi.n	8004194 <OSFlagPend+0xa0>
 8004132:	208b      	movs	r0, #139	@ 0x8b
 8004134:	fa20 f303 	lsr.w	r3, r0, r3
 8004138:	07df      	lsls	r7, r3, #31
 800413a:	d52b      	bpl.n	8004194 <OSFlagPend+0xa0>
 800413c:	4b82      	ldr	r3, [pc, #520]	@ (8004348 <OSFlagPend+0x254>)
 800413e:	6830      	ldr	r0, [r6, #0]
 8004140:	4298      	cmp	r0, r3
 8004142:	d14f      	bne.n	80041e4 <OSFlagPend+0xf0>
 8004144:	9b0a      	ldr	r3, [sp, #40]	@ 0x28
 8004146:	f404 7980 	and.w	r9, r4, #256	@ 0x100
 800414a:	b113      	cbz	r3, 8004152 <OSFlagPend+0x5e>
 800414c:	4618      	mov	r0, r3
 800414e:	2300      	movs	r3, #0
 8004150:	6003      	str	r3, [r0, #0]
 8004152:	2040      	movs	r0, #64	@ 0x40
 8004154:	e9cd 1200 	strd	r1, r2, [sp]
 8004158:	f7fc f83a 	bl	80001d0 <CPU_SR_Save>
 800415c:	f004 080f 	and.w	r8, r4, #15
 8004160:	f108 33ff 	add.w	r3, r8, #4294967295
 8004164:	e9dd 1200 	ldrd	r1, r2, [sp]
 8004168:	4607      	mov	r7, r0
 800416a:	2b07      	cmp	r3, #7
 800416c:	d840      	bhi.n	80041f0 <OSFlagPend+0xfc>
 800416e:	e8df f003 	tbb	[pc, r3]
 8004172:	7d90      	.short	0x7d90
 8004174:	3f3f703f 	.word	0x3f3f703f
 8004178:	453f      	.short	0x453f
 800417a:	f645 6389 	movw	r3, #24201	@ 0x5e89
 800417e:	9a0b      	ldr	r2, [sp, #44]	@ 0x2c
 8004180:	2500      	movs	r5, #0
 8004182:	8013      	strh	r3, [r2, #0]
 8004184:	4628      	mov	r0, r5
 8004186:	b003      	add	sp, #12
 8004188:	e8bd 83f0 	ldmia.w	sp!, {r4, r5, r6, r7, r8, r9, pc}
 800418c:	f246 13ae 	movw	r3, #25006	@ 0x61ae
 8004190:	e7f5      	b.n	800417e <OSFlagPend+0x8a>
 8004192:	b914      	cbnz	r4, 800419a <OSFlagPend+0xa6>
 8004194:	f645 6325 	movw	r3, #24101	@ 0x5e25
 8004198:	e7f1      	b.n	800417e <OSFlagPend+0x8a>
 800419a:	f44f 738b 	mov.w	r3, #278	@ 0x116
 800419e:	40e3      	lsrs	r3, r4
 80041a0:	07dd      	lsls	r5, r3, #31
 80041a2:	d4cb      	bmi.n	800413c <OSFlagPend+0x48>
 80041a4:	f645 6325 	movw	r3, #24101	@ 0x5e25
 80041a8:	e7e9      	b.n	800417e <OSFlagPend+0x8a>
 80041aa:	f504 43ff 	add.w	r3, r4, #32640	@ 0x7f80
 80041ae:	337f      	adds	r3, #127	@ 0x7f
 80041b0:	b29b      	uxth	r3, r3
 80041b2:	208b      	movs	r0, #139	@ 0x8b
 80041b4:	fa20 f303 	lsr.w	r3, r0, r3
 80041b8:	07db      	lsls	r3, r3, #31
 80041ba:	d4bf      	bmi.n	800413c <OSFlagPend+0x48>
 80041bc:	f645 6325 	movw	r3, #24101	@ 0x5e25
 80041c0:	e7dd      	b.n	800417e <OSFlagPend+0x8a>
 80041c2:	f504 4cfd 	add.w	ip, r4, #32384	@ 0x7e80
 80041c6:	f10c 0c7f 	add.w	ip, ip, #127	@ 0x7f
 80041ca:	fa1f fc8c 	uxth.w	ip, ip
 80041ce:	f1bc 0f07 	cmp.w	ip, #7
 80041d2:	d8df      	bhi.n	8004194 <OSFlagPend+0xa0>
 80041d4:	238b      	movs	r3, #139	@ 0x8b
 80041d6:	fa23 f30c 	lsr.w	r3, r3, ip
 80041da:	07d8      	lsls	r0, r3, #31
 80041dc:	d4ae      	bmi.n	800413c <OSFlagPend+0x48>
 80041de:	f645 6325 	movw	r3, #24101	@ 0x5e25
 80041e2:	e7cc      	b.n	800417e <OSFlagPend+0x8a>
 80041e4:	f645 53c4 	movw	r3, #24004	@ 0x5dc4
 80041e8:	e7c9      	b.n	800417e <OSFlagPend+0x8a>
 80041ea:	f645 53c3 	movw	r3, #24003	@ 0x5dc3
 80041ee:	e7c6      	b.n	800417e <OSFlagPend+0x8a>
 80041f0:	4638      	mov	r0, r7
 80041f2:	f7fb fffb 	bl	80001ec <CPU_SR_Restore>
 80041f6:	f645 6325 	movw	r3, #24101	@ 0x5e25
 80041fa:	e7c0      	b.n	800417e <OSFlagPend+0x8a>
 80041fc:	68f3      	ldr	r3, [r6, #12]
 80041fe:	ea13 0501 	ands.w	r5, r3, r1
 8004202:	d12c      	bne.n	800425e <OSFlagPend+0x16a>
 8004204:	0423      	lsls	r3, r4, #16
 8004206:	f100 808c 	bmi.w	8004322 <OSFlagPend+0x22e>
 800420a:	4b50      	ldr	r3, [pc, #320]	@ (800434c <OSFlagPend+0x258>)
 800420c:	f893 c000 	ldrb.w	ip, [r3]
 8004210:	f1bc 0f00 	cmp.w	ip, #0
 8004214:	d177      	bne.n	8004306 <OSFlagPend+0x212>
 8004216:	4d4e      	ldr	r5, [pc, #312]	@ (8004350 <OSFlagPend+0x25c>)
 8004218:	6828      	ldr	r0, [r5, #0]
 800421a:	4613      	mov	r3, r2
 800421c:	f8c0 c078 	str.w	ip, [r0, #120]	@ 0x78
 8004220:	2201      	movs	r2, #1
 8004222:	6741      	str	r1, [r0, #116]	@ 0x74
 8004224:	f8a0 407c 	strh.w	r4, [r0, #124]	@ 0x7c
 8004228:	4601      	mov	r1, r0
 800422a:	4630      	mov	r0, r6
 800422c:	f7ff fd12 	bl	8003c54 <OS_Pend>
 8004230:	4638      	mov	r0, r7
 8004232:	f7fb ffdb 	bl	80001ec <CPU_SR_Restore>
 8004236:	f7ff fc8b 	bl	8003b50 <OSSched>
 800423a:	2040      	movs	r0, #64	@ 0x40
 800423c:	f7fb ffc8 	bl	80001d0 <CPU_SR_Save>
 8004240:	682a      	ldr	r2, [r5, #0]
 8004242:	f892 302d 	ldrb.w	r3, [r2, #45]	@ 0x2d
 8004246:	2b03      	cmp	r3, #3
 8004248:	d874      	bhi.n	8004334 <OSFlagPend+0x240>
 800424a:	e8df f003 	tbb	[pc, r3]
 800424e:	5731      	.short	0x5731
 8004250:	4852      	.short	0x4852
 8004252:	68f3      	ldr	r3, [r6, #12]
 8004254:	ea31 0003 	bics.w	r0, r1, r3
 8004258:	ea03 0501 	and.w	r5, r3, r1
 800425c:	d1d2      	bne.n	8004204 <OSFlagPend+0x110>
 800425e:	f1b9 0f00 	cmp.w	r9, #0
 8004262:	d00c      	beq.n	800427e <OSFlagPend+0x18a>
 8004264:	ea23 0305 	bic.w	r3, r3, r5
 8004268:	60f3      	str	r3, [r6, #12]
 800426a:	e008      	b.n	800427e <OSFlagPend+0x18a>
 800426c:	68f3      	ldr	r3, [r6, #12]
 800426e:	ea31 0503 	bics.w	r5, r1, r3
 8004272:	d0c7      	beq.n	8004204 <OSFlagPend+0x110>
 8004274:	f1b9 0f00 	cmp.w	r9, #0
 8004278:	d001      	beq.n	800427e <OSFlagPend+0x18a>
 800427a:	430b      	orrs	r3, r1
 800427c:	60f3      	str	r3, [r6, #12]
 800427e:	4b34      	ldr	r3, [pc, #208]	@ (8004350 <OSFlagPend+0x25c>)
 8004280:	681b      	ldr	r3, [r3, #0]
 8004282:	4638      	mov	r0, r7
 8004284:	679d      	str	r5, [r3, #120]	@ 0x78
 8004286:	f7fb ffb1 	bl	80001ec <CPU_SR_Restore>
 800428a:	9a0b      	ldr	r2, [sp, #44]	@ 0x2c
 800428c:	2300      	movs	r3, #0
 800428e:	8013      	strh	r3, [r2, #0]
 8004290:	e778      	b.n	8004184 <OSFlagPend+0x90>
 8004292:	68f5      	ldr	r5, [r6, #12]
 8004294:	420d      	tst	r5, r1
 8004296:	d1b5      	bne.n	8004204 <OSFlagPend+0x110>
 8004298:	f1b9 0f00 	cmp.w	r9, #0
 800429c:	d002      	beq.n	80042a4 <OSFlagPend+0x1b0>
 800429e:	ea45 0301 	orr.w	r3, r5, r1
 80042a2:	60f3      	str	r3, [r6, #12]
 80042a4:	4b2a      	ldr	r3, [pc, #168]	@ (8004350 <OSFlagPend+0x25c>)
 80042a6:	ea21 0505 	bic.w	r5, r1, r5
 80042aa:	681b      	ldr	r3, [r3, #0]
 80042ac:	4638      	mov	r0, r7
 80042ae:	e7e9      	b.n	8004284 <OSFlagPend+0x190>
 80042b0:	6f95      	ldr	r5, [r2, #120]	@ 0x78
 80042b2:	9a0b      	ldr	r2, [sp, #44]	@ 0x2c
 80042b4:	2300      	movs	r3, #0
 80042b6:	8013      	strh	r3, [r2, #0]
 80042b8:	f1b9 0f00 	cmp.w	r9, #0
 80042bc:	d009      	beq.n	80042d2 <OSFlagPend+0x1de>
 80042be:	f1b8 0f04 	cmp.w	r8, #4
 80042c2:	d029      	beq.n	8004318 <OSFlagPend+0x224>
 80042c4:	d825      	bhi.n	8004312 <OSFlagPend+0x21e>
 80042c6:	f1b8 0f03 	cmp.w	r8, #3
 80042ca:	d030      	beq.n	800432e <OSFlagPend+0x23a>
 80042cc:	68f3      	ldr	r3, [r6, #12]
 80042ce:	432b      	orrs	r3, r5
 80042d0:	60f3      	str	r3, [r6, #12]
 80042d2:	f7fb ff8b 	bl	80001ec <CPU_SR_Restore>
 80042d6:	9a0b      	ldr	r2, [sp, #44]	@ 0x2c
 80042d8:	2300      	movs	r3, #0
 80042da:	8013      	strh	r3, [r2, #0]
 80042dc:	e752      	b.n	8004184 <OSFlagPend+0x90>
 80042de:	9b0a      	ldr	r3, [sp, #40]	@ 0x28
 80042e0:	b113      	cbz	r3, 80042e8 <OSFlagPend+0x1f4>
 80042e2:	461a      	mov	r2, r3
 80042e4:	2300      	movs	r3, #0
 80042e6:	6013      	str	r3, [r2, #0]
 80042e8:	f7fb ff80 	bl	80001ec <CPU_SR_Restore>
 80042ec:	f247 23d9 	movw	r3, #29401	@ 0x72d9
 80042f0:	e745      	b.n	800417e <OSFlagPend+0x8a>
 80042f2:	f7fb ff7b 	bl	80001ec <CPU_SR_Restore>
 80042f6:	f645 53c2 	movw	r3, #24002	@ 0x5dc2
 80042fa:	e740      	b.n	800417e <OSFlagPend+0x8a>
 80042fc:	f7fb ff76 	bl	80001ec <CPU_SR_Restore>
 8004300:	f246 13a9 	movw	r3, #25001	@ 0x61a9
 8004304:	e73b      	b.n	800417e <OSFlagPend+0x8a>
 8004306:	4638      	mov	r0, r7
 8004308:	f7fb ff70 	bl	80001ec <CPU_SR_Restore>
 800430c:	f646 5363 	movw	r3, #28003	@ 0x6d63
 8004310:	e735      	b.n	800417e <OSFlagPend+0x8a>
 8004312:	f1b8 0f08 	cmp.w	r8, #8
 8004316:	d10a      	bne.n	800432e <OSFlagPend+0x23a>
 8004318:	68f3      	ldr	r3, [r6, #12]
 800431a:	ea23 0305 	bic.w	r3, r3, r5
 800431e:	60f3      	str	r3, [r6, #12]
 8004320:	e7d7      	b.n	80042d2 <OSFlagPend+0x1de>
 8004322:	4638      	mov	r0, r7
 8004324:	f7fb ff62 	bl	80001ec <CPU_SR_Restore>
 8004328:	f246 13b0 	movw	r3, #25008	@ 0x61b0
 800432c:	e727      	b.n	800417e <OSFlagPend+0x8a>
 800432e:	f7fb ff5d 	bl	80001ec <CPU_SR_Restore>
 8004332:	e72f      	b.n	8004194 <OSFlagPend+0xa0>
 8004334:	f7fb ff5a 	bl	80001ec <CPU_SR_Restore>
 8004338:	f646 632e 	movw	r3, #28206	@ 0x6e2e
 800433c:	e71f      	b.n	800417e <OSFlagPend+0x8a>
 800433e:	bf00      	nop
 8004340:	20001bfe 	.word	0x20001bfe
 8004344:	20001bfd 	.word	0x20001bfd
 8004348:	47414c46 	.word	0x47414c46
 800434c:	20001ae0 	.word	0x20001ae0
 8004350:	2000192c 	.word	0x2000192c

08004354 <OSFlagPost>:
 8004354:	e92d 43f8 	stmdb	sp!, {r3, r4, r5, r6, r7, r8, r9, lr}
 8004358:	4c5f      	ldr	r4, [pc, #380]	@ (80044d8 <OSFlagPost+0x184>)
 800435a:	f894 c000 	ldrb.w	ip, [r4]
 800435e:	f1bc 0f01 	cmp.w	ip, #1
 8004362:	4698      	mov	r8, r3
 8004364:	d12d      	bne.n	80043c2 <OSFlagPost+0x6e>
 8004366:	4604      	mov	r4, r0
 8004368:	2800      	cmp	r0, #0
 800436a:	d03c      	beq.n	80043e6 <OSFlagPost+0x92>
 800436c:	4b5b      	ldr	r3, [pc, #364]	@ (80044dc <OSFlagPost+0x188>)
 800436e:	4615      	mov	r5, r2
 8004370:	6802      	ldr	r2, [r0, #0]
 8004372:	429a      	cmp	r2, r3
 8004374:	d134      	bne.n	80043e0 <OSFlagPost+0x8c>
 8004376:	f5b5 4f00 	cmp.w	r5, #32768	@ 0x8000
 800437a:	460e      	mov	r6, r1
 800437c:	f000 808c 	beq.w	8004498 <OSFlagPost+0x144>
 8004380:	d827      	bhi.n	80043d2 <OSFlagPost+0x7e>
 8004382:	2d00      	cmp	r5, #0
 8004384:	f000 8088 	beq.w	8004498 <OSFlagPost+0x144>
 8004388:	2d01      	cmp	r5, #1
 800438a:	d126      	bne.n	80043da <OSFlagPost+0x86>
 800438c:	2040      	movs	r0, #64	@ 0x40
 800438e:	f7fb ff1f 	bl	80001d0 <CPU_SR_Save>
 8004392:	68e3      	ldr	r3, [r4, #12]
 8004394:	4607      	mov	r7, r0
 8004396:	ea23 0306 	bic.w	r3, r3, r6
 800439a:	6866      	ldr	r6, [r4, #4]
 800439c:	60e3      	str	r3, [r4, #12]
 800439e:	2e00      	cmp	r6, #0
 80043a0:	f000 808e 	beq.w	80044c0 <OSFlagPost+0x16c>
 80043a4:	46b1      	mov	r9, r6
 80043a6:	6a36      	ldr	r6, [r6, #32]
 80043a8:	f8b9 107c 	ldrh.w	r1, [r9, #124]	@ 0x7c
 80043ac:	f001 010f 	and.w	r1, r1, #15
 80043b0:	3901      	subs	r1, #1
 80043b2:	2907      	cmp	r1, #7
 80043b4:	d81a      	bhi.n	80043ec <OSFlagPost+0x98>
 80043b6:	e8df f001 	tbb	[pc, r1]
 80043ba:	4057      	.short	0x4057
 80043bc:	19193719 	.word	0x19193719
 80043c0:	1f19      	.short	0x1f19
 80043c2:	f645 6389 	movw	r3, #24201	@ 0x5e89
 80043c6:	f8a8 3000 	strh.w	r3, [r8]
 80043ca:	2400      	movs	r4, #0
 80043cc:	4620      	mov	r0, r4
 80043ce:	e8bd 83f8 	ldmia.w	sp!, {r3, r4, r5, r6, r7, r8, r9, pc}
 80043d2:	f248 0301 	movw	r3, #32769	@ 0x8001
 80043d6:	429d      	cmp	r5, r3
 80043d8:	d0d8      	beq.n	800438c <OSFlagPost+0x38>
 80043da:	f645 6325 	movw	r3, #24101	@ 0x5e25
 80043de:	e7f2      	b.n	80043c6 <OSFlagPost+0x72>
 80043e0:	f645 53c4 	movw	r3, #24004	@ 0x5dc4
 80043e4:	e7ef      	b.n	80043c6 <OSFlagPost+0x72>
 80043e6:	f645 53c3 	movw	r3, #24003	@ 0x5dc3
 80043ea:	e7ec      	b.n	80043c6 <OSFlagPost+0x72>
 80043ec:	4638      	mov	r0, r7
 80043ee:	f7fb fefd 	bl	80001ec <CPU_SR_Restore>
 80043f2:	f643 23ff 	movw	r3, #15103	@ 0x3aff
 80043f6:	e7e6      	b.n	80043c6 <OSFlagPost+0x72>
 80043f8:	68e3      	ldr	r3, [r4, #12]
 80043fa:	f8d9 2074 	ldr.w	r2, [r9, #116]	@ 0x74
 80043fe:	4013      	ands	r3, r2
 8004400:	d120      	bne.n	8004444 <OSFlagPost+0xf0>
 8004402:	2e00      	cmp	r6, #0
 8004404:	d1ce      	bne.n	80043a4 <OSFlagPost+0x50>
 8004406:	4638      	mov	r0, r7
 8004408:	f7fb fef0 	bl	80001ec <CPU_SR_Restore>
 800440c:	042b      	lsls	r3, r5, #16
 800440e:	d401      	bmi.n	8004414 <OSFlagPost+0xc0>
 8004410:	f7ff fb9e 	bl	8003b50 <OSSched>
 8004414:	2040      	movs	r0, #64	@ 0x40
 8004416:	f7fb fedb 	bl	80001d0 <CPU_SR_Save>
 800441a:	68e4      	ldr	r4, [r4, #12]
 800441c:	f7fb fee6 	bl	80001ec <CPU_SR_Restore>
 8004420:	2300      	movs	r3, #0
 8004422:	f8a8 3000 	strh.w	r3, [r8]
 8004426:	e7d1      	b.n	80043cc <OSFlagPost+0x78>
 8004428:	f8d9 2074 	ldr.w	r2, [r9, #116]	@ 0x74
 800442c:	68e3      	ldr	r3, [r4, #12]
 800442e:	ea32 0303 	bics.w	r3, r2, r3
 8004432:	d1e6      	bne.n	8004402 <OSFlagPost+0xae>
 8004434:	f8c9 2078 	str.w	r2, [r9, #120]	@ 0x78
 8004438:	e006      	b.n	8004448 <OSFlagPost+0xf4>
 800443a:	68e2      	ldr	r2, [r4, #12]
 800443c:	f8d9 3074 	ldr.w	r3, [r9, #116]	@ 0x74
 8004440:	4393      	bics	r3, r2
 8004442:	d0de      	beq.n	8004402 <OSFlagPost+0xae>
 8004444:	f8c9 3078 	str.w	r3, [r9, #120]	@ 0x78
 8004448:	f899 302e 	ldrb.w	r3, [r9, #46]	@ 0x2e
 800444c:	2200      	movs	r2, #0
 800444e:	2b03      	cmp	r3, #3
 8004450:	f8a9 202c 	strh.w	r2, [r9, #44]	@ 0x2c
 8004454:	d918      	bls.n	8004488 <OSFlagPost+0x134>
 8004456:	1f9a      	subs	r2, r3, #6
 8004458:	2a01      	cmp	r2, #1
 800445a:	d817      	bhi.n	800448c <OSFlagPost+0x138>
 800445c:	2b07      	cmp	r3, #7
 800445e:	d022      	beq.n	80044a6 <OSFlagPost+0x152>
 8004460:	2304      	movs	r3, #4
 8004462:	f889 302e 	strb.w	r3, [r9, #46]	@ 0x2e
 8004466:	e011      	b.n	800448c <OSFlagPost+0x138>
 8004468:	68e2      	ldr	r2, [r4, #12]
 800446a:	f8d9 3074 	ldr.w	r3, [r9, #116]	@ 0x74
 800446e:	ea12 0103 	ands.w	r1, r2, r3
 8004472:	d1c6      	bne.n	8004402 <OSFlagPost+0xae>
 8004474:	ea23 0302 	bic.w	r3, r3, r2
 8004478:	f8c9 3078 	str.w	r3, [r9, #120]	@ 0x78
 800447c:	f899 302e 	ldrb.w	r3, [r9, #46]	@ 0x2e
 8004480:	f8a9 102c 	strh.w	r1, [r9, #44]	@ 0x2c
 8004484:	2b03      	cmp	r3, #3
 8004486:	d8e6      	bhi.n	8004456 <OSFlagPost+0x102>
 8004488:	2b01      	cmp	r3, #1
 800448a:	d810      	bhi.n	80044ae <OSFlagPost+0x15a>
 800448c:	4648      	mov	r0, r9
 800448e:	f7ff fc7b 	bl	8003d88 <OS_PendListRemove>
 8004492:	2e00      	cmp	r6, #0
 8004494:	d186      	bne.n	80043a4 <OSFlagPost+0x50>
 8004496:	e7b6      	b.n	8004406 <OSFlagPost+0xb2>
 8004498:	2040      	movs	r0, #64	@ 0x40
 800449a:	f7fb fe99 	bl	80001d0 <CPU_SR_Save>
 800449e:	68e3      	ldr	r3, [r4, #12]
 80044a0:	4607      	mov	r7, r0
 80044a2:	4333      	orrs	r3, r6
 80044a4:	e779      	b.n	800439a <OSFlagPost+0x46>
 80044a6:	4648      	mov	r0, r9
 80044a8:	f000 feba 	bl	8005220 <OS_TickListRemove>
 80044ac:	e7d8      	b.n	8004460 <OSFlagPost+0x10c>
 80044ae:	2b03      	cmp	r3, #3
 80044b0:	d00d      	beq.n	80044ce <OSFlagPost+0x17a>
 80044b2:	4648      	mov	r0, r9
 80044b4:	f7ff fd16 	bl	8003ee4 <OS_RdyListInsert>
 80044b8:	2300      	movs	r3, #0
 80044ba:	f889 302e 	strb.w	r3, [r9, #46]	@ 0x2e
 80044be:	e7e5      	b.n	800448c <OSFlagPost+0x138>
 80044c0:	4638      	mov	r0, r7
 80044c2:	f7fb fe93 	bl	80001ec <CPU_SR_Restore>
 80044c6:	68e4      	ldr	r4, [r4, #12]
 80044c8:	f8a8 6000 	strh.w	r6, [r8]
 80044cc:	e77e      	b.n	80043cc <OSFlagPost+0x78>
 80044ce:	4648      	mov	r0, r9
 80044d0:	f000 fea6 	bl	8005220 <OS_TickListRemove>
 80044d4:	e7ed      	b.n	80044b2 <OSFlagPost+0x15e>
 80044d6:	bf00      	nop
 80044d8:	20001bfd 	.word	0x20001bfd
 80044dc:	47414c46 	.word	0x47414c46

080044e0 <OS_MemInit>:
 80044e0:	2300      	movs	r3, #0
 80044e2:	8003      	strh	r3, [r0, #0]
 80044e4:	4770      	bx	lr
 80044e6:	bf00      	nop

080044e8 <OS_MsgPoolInit>:
 80044e8:	4b1b      	ldr	r3, [pc, #108]	@ (8004558 <OS_MsgPoolInit+0x70>)
 80044ea:	b430      	push	{r4, r5}
 80044ec:	681c      	ldr	r4, [r3, #0]
 80044ee:	b36c      	cbz	r4, 800454c <OS_MsgPoolInit+0x64>
 80044f0:	4b1a      	ldr	r3, [pc, #104]	@ (800455c <OS_MsgPoolInit+0x74>)
 80044f2:	881d      	ldrh	r5, [r3, #0]
 80044f4:	b31d      	cbz	r5, 800453e <OS_MsgPoolInit+0x56>
 80044f6:	2d01      	cmp	r5, #1
 80044f8:	f104 030c 	add.w	r3, r4, #12
 80044fc:	d024      	beq.n	8004548 <OS_MsgPoolInit+0x60>
 80044fe:	1ea9      	subs	r1, r5, #2
 8004500:	b289      	uxth	r1, r1
 8004502:	eb01 0c41 	add.w	ip, r1, r1, lsl #1
 8004506:	eb04 0c8c 	add.w	ip, r4, ip, lsl #2
 800450a:	f10c 0c18 	add.w	ip, ip, #24
 800450e:	2200      	movs	r2, #0
 8004510:	f823 2c04 	strh.w	r2, [r3, #-4]
 8004514:	e943 3203 	strd	r3, r2, [r3, #-12]
 8004518:	330c      	adds	r3, #12
 800451a:	4563      	cmp	r3, ip
 800451c:	d1f8      	bne.n	8004510 <OS_MsgPoolInit+0x28>
 800451e:	3101      	adds	r1, #1
 8004520:	eb01 0141 	add.w	r1, r1, r1, lsl #1
 8004524:	eb04 0381 	add.w	r3, r4, r1, lsl #2
 8004528:	2200      	movs	r2, #0
 800452a:	e9c3 2200 	strd	r2, r2, [r3]
 800452e:	811a      	strh	r2, [r3, #8]
 8004530:	4b0b      	ldr	r3, [pc, #44]	@ (8004560 <OS_MsgPoolInit+0x78>)
 8004532:	601c      	str	r4, [r3, #0]
 8004534:	809d      	strh	r5, [r3, #4]
 8004536:	80da      	strh	r2, [r3, #6]
 8004538:	bc30      	pop	{r4, r5}
 800453a:	8002      	strh	r2, [r0, #0]
 800453c:	4770      	bx	lr
 800453e:	f245 721d 	movw	r2, #22301	@ 0x571d
 8004542:	bc30      	pop	{r4, r5}
 8004544:	8002      	strh	r2, [r0, #0]
 8004546:	4770      	bx	lr
 8004548:	4623      	mov	r3, r4
 800454a:	e7ed      	b.n	8004528 <OS_MsgPoolInit+0x40>
 800454c:	f245 721e 	movw	r2, #22302	@ 0x571e
 8004550:	bc30      	pop	{r4, r5}
 8004552:	8002      	strh	r2, [r0, #0]
 8004554:	4770      	bx	lr
 8004556:	bf00      	nop
 8004558:	08005a00 	.word	0x08005a00
 800455c:	08005a04 	.word	0x08005a04
 8004560:	20001bec 	.word	0x20001bec

08004564 <OS_MsgQFreeAll>:
 8004564:	4603      	mov	r3, r0
 8004566:	8940      	ldrh	r0, [r0, #10]
 8004568:	b1b0      	cbz	r0, 8004598 <OS_MsgQFreeAll+0x34>
 800456a:	4a0c      	ldr	r2, [pc, #48]	@ (800459c <OS_MsgQFreeAll+0x38>)
 800456c:	6819      	ldr	r1, [r3, #0]
 800456e:	f8b2 c006 	ldrh.w	ip, [r2, #6]
 8004572:	b410      	push	{r4}
 8004574:	6814      	ldr	r4, [r2, #0]
 8004576:	600c      	str	r4, [r1, #0]
 8004578:	8891      	ldrh	r1, [r2, #4]
 800457a:	685c      	ldr	r4, [r3, #4]
 800457c:	6014      	str	r4, [r2, #0]
 800457e:	ebac 0c00 	sub.w	ip, ip, r0
 8004582:	4401      	add	r1, r0
 8004584:	f8a2 c006 	strh.w	ip, [r2, #6]
 8004588:	8091      	strh	r1, [r2, #4]
 800458a:	2200      	movs	r2, #0
 800458c:	e9c3 2200 	strd	r2, r2, [r3]
 8004590:	f85d 4b04 	ldr.w	r4, [sp], #4
 8004594:	815a      	strh	r2, [r3, #10]
 8004596:	4770      	bx	lr
 8004598:	4770      	bx	lr
 800459a:	bf00      	nop
 800459c:	20001bec 	.word	0x20001bec

080045a0 <OS_MsgQInit>:
 80045a0:	2300      	movs	r3, #0
 80045a2:	e9c0 3300 	strd	r3, r3, [r0]
 80045a6:	8101      	strh	r1, [r0, #8]
 80045a8:	8143      	strh	r3, [r0, #10]
 80045aa:	4770      	bx	lr

080045ac <OSMutexCreate>:
 80045ac:	b5f8      	push	{r3, r4, r5, r6, r7, lr}
 80045ae:	4b13      	ldr	r3, [pc, #76]	@ (80045fc <OSMutexCreate+0x50>)
 80045b0:	781d      	ldrb	r5, [r3, #0]
 80045b2:	4616      	mov	r6, r2
 80045b4:	b9cd      	cbnz	r5, 80045ea <OSMutexCreate+0x3e>
 80045b6:	4604      	mov	r4, r0
 80045b8:	b198      	cbz	r0, 80045e2 <OSMutexCreate+0x36>
 80045ba:	2040      	movs	r0, #64	@ 0x40
 80045bc:	f7fb fe08 	bl	80001d0 <CPU_SR_Save>
 80045c0:	4b0f      	ldr	r3, [pc, #60]	@ (8004600 <OSMutexCreate+0x54>)
 80045c2:	6822      	ldr	r2, [r4, #0]
 80045c4:	429a      	cmp	r2, r3
 80045c6:	4607      	mov	r7, r0
 80045c8:	d013      	beq.n	80045f2 <OSMutexCreate+0x46>
 80045ca:	1d20      	adds	r0, r4, #4
 80045cc:	e9c4 5503 	strd	r5, r5, [r4, #12]
 80045d0:	6023      	str	r3, [r4, #0]
 80045d2:	7525      	strb	r5, [r4, #20]
 80045d4:	f7ff fbd4 	bl	8003d80 <OS_PendListInit>
 80045d8:	4638      	mov	r0, r7
 80045da:	f7fb fe07 	bl	80001ec <CPU_SR_Restore>
 80045de:	8035      	strh	r5, [r6, #0]
 80045e0:	bdf8      	pop	{r3, r4, r5, r6, r7, pc}
 80045e2:	f645 55c3 	movw	r5, #24003	@ 0x5dc3
 80045e6:	8035      	strh	r5, [r6, #0]
 80045e8:	bdf8      	pop	{r3, r4, r5, r6, r7, pc}
 80045ea:	f642 65e1 	movw	r5, #12001	@ 0x2ee1
 80045ee:	8035      	strh	r5, [r6, #0]
 80045f0:	bdf8      	pop	{r3, r4, r5, r6, r7, pc}
 80045f2:	f7fb fdfb 	bl	80001ec <CPU_SR_Restore>
 80045f6:	f645 55c1 	movw	r5, #24001	@ 0x5dc1
 80045fa:	e7f0      	b.n	80045de <OSMutexCreate+0x32>
 80045fc:	20001bfe 	.word	0x20001bfe
 8004600:	5854554d 	.word	0x5854554d

08004604 <OSMutexPend>:
 8004604:	e92d 47f0 	stmdb	sp!, {r4, r5, r6, r7, r8, r9, sl, lr}
 8004608:	4b52      	ldr	r3, [pc, #328]	@ (8004754 <OSMutexPend+0x150>)
 800460a:	f8dd 8020 	ldr.w	r8, [sp, #32]
 800460e:	781c      	ldrb	r4, [r3, #0]
 8004610:	b9ac      	cbnz	r4, 800463e <OSMutexPend+0x3a>
 8004612:	4b51      	ldr	r3, [pc, #324]	@ (8004758 <OSMutexPend+0x154>)
 8004614:	781c      	ldrb	r4, [r3, #0]
 8004616:	2c01      	cmp	r4, #1
 8004618:	d10b      	bne.n	8004632 <OSMutexPend+0x2e>
 800461a:	4607      	mov	r7, r0
 800461c:	b1f0      	cbz	r0, 800465c <OSMutexPend+0x58>
 800461e:	f3c2 030e 	ubfx	r3, r2, #0, #15
 8004622:	4615      	mov	r5, r2
 8004624:	b18b      	cbz	r3, 800464a <OSMutexPend+0x46>
 8004626:	f645 6325 	movw	r3, #24101	@ 0x5e25
 800462a:	f8a8 3000 	strh.w	r3, [r8]
 800462e:	e8bd 87f0 	ldmia.w	sp!, {r4, r5, r6, r7, r8, r9, sl, pc}
 8004632:	f645 6389 	movw	r3, #24201	@ 0x5e89
 8004636:	f8a8 3000 	strh.w	r3, [r8]
 800463a:	e8bd 87f0 	ldmia.w	sp!, {r4, r5, r6, r7, r8, r9, sl, pc}
 800463e:	f246 13ae 	movw	r3, #25006	@ 0x61ae
 8004642:	f8a8 3000 	strh.w	r3, [r8]
 8004646:	e8bd 87f0 	ldmia.w	sp!, {r4, r5, r6, r7, r8, r9, sl, pc}
 800464a:	4b44      	ldr	r3, [pc, #272]	@ (800475c <OSMutexPend+0x158>)
 800464c:	6802      	ldr	r2, [r0, #0]
 800464e:	429a      	cmp	r2, r3
 8004650:	d009      	beq.n	8004666 <OSMutexPend+0x62>
 8004652:	f645 53c4 	movw	r3, #24004	@ 0x5dc4
 8004656:	f8a8 3000 	strh.w	r3, [r8]
 800465a:	e7ee      	b.n	800463a <OSMutexPend+0x36>
 800465c:	f645 53c3 	movw	r3, #24003	@ 0x5dc3
 8004660:	f8a8 3000 	strh.w	r3, [r8]
 8004664:	e7e9      	b.n	800463a <OSMutexPend+0x36>
 8004666:	2040      	movs	r0, #64	@ 0x40
 8004668:	460e      	mov	r6, r1
 800466a:	f7fb fdb1 	bl	80001d0 <CPU_SR_Save>
 800466e:	f897 a014 	ldrb.w	sl, [r7, #20]
 8004672:	4681      	mov	r9, r0
 8004674:	f1ba 0f00 	cmp.w	sl, #0
 8004678:	d042      	beq.n	8004700 <OSMutexPend+0xfc>
 800467a:	4c39      	ldr	r4, [pc, #228]	@ (8004760 <OSMutexPend+0x15c>)
 800467c:	693b      	ldr	r3, [r7, #16]
 800467e:	6821      	ldr	r1, [r4, #0]
 8004680:	428b      	cmp	r3, r1
 8004682:	d02f      	beq.n	80046e4 <OSMutexPend+0xe0>
 8004684:	2d00      	cmp	r5, #0
 8004686:	d14d      	bne.n	8004724 <OSMutexPend+0x120>
 8004688:	4a36      	ldr	r2, [pc, #216]	@ (8004764 <OSMutexPend+0x160>)
 800468a:	7812      	ldrb	r2, [r2, #0]
 800468c:	2a00      	cmp	r2, #0
 800468e:	d150      	bne.n	8004732 <OSMutexPend+0x12e>
 8004690:	f891 202f 	ldrb.w	r2, [r1, #47]	@ 0x2f
 8004694:	f893 002f 	ldrb.w	r0, [r3, #47]	@ 0x2f
 8004698:	4290      	cmp	r0, r2
 800469a:	d83d      	bhi.n	8004718 <OSMutexPend+0x114>
 800469c:	4633      	mov	r3, r6
 800469e:	2204      	movs	r2, #4
 80046a0:	4638      	mov	r0, r7
 80046a2:	f7ff fad7 	bl	8003c54 <OS_Pend>
 80046a6:	4648      	mov	r0, r9
 80046a8:	f7fb fda0 	bl	80001ec <CPU_SR_Restore>
 80046ac:	f7ff fa50 	bl	8003b50 <OSSched>
 80046b0:	2040      	movs	r0, #64	@ 0x40
 80046b2:	f7fb fd8d 	bl	80001d0 <CPU_SR_Save>
 80046b6:	6823      	ldr	r3, [r4, #0]
 80046b8:	f893 302d 	ldrb.w	r3, [r3, #45]	@ 0x2d
 80046bc:	2b03      	cmp	r3, #3
 80046be:	d846      	bhi.n	800474e <OSMutexPend+0x14a>
 80046c0:	e8df f003 	tbb	[pc, r3]
 80046c4:	0d0a0204 	.word	0x0d0a0204
 80046c8:	f246 15a9 	movw	r5, #25001	@ 0x61a9
 80046cc:	f8a8 5000 	strh.w	r5, [r8]
 80046d0:	e8bd 47f0 	ldmia.w	sp!, {r4, r5, r6, r7, r8, r9, sl, lr}
 80046d4:	f7fb bd8a 	b.w	80001ec <CPU_SR_Restore>
 80046d8:	f645 55c2 	movw	r5, #24002	@ 0x5dc2
 80046dc:	e7f6      	b.n	80046cc <OSMutexPend+0xc8>
 80046de:	f247 25d9 	movw	r5, #29401	@ 0x72d9
 80046e2:	e7f3      	b.n	80046cc <OSMutexPend+0xc8>
 80046e4:	f1ba 0fff 	cmp.w	sl, #255	@ 0xff
 80046e8:	d02a      	beq.n	8004740 <OSMutexPend+0x13c>
 80046ea:	f10a 0a01 	add.w	sl, sl, #1
 80046ee:	f887 a014 	strb.w	sl, [r7, #20]
 80046f2:	f7fb fd7b 	bl	80001ec <CPU_SR_Restore>
 80046f6:	f245 7382 	movw	r3, #22402	@ 0x5782
 80046fa:	f8a8 3000 	strh.w	r3, [r8]
 80046fe:	e79c      	b.n	800463a <OSMutexPend+0x36>
 8004700:	4b17      	ldr	r3, [pc, #92]	@ (8004760 <OSMutexPend+0x15c>)
 8004702:	753c      	strb	r4, [r7, #20]
 8004704:	681b      	ldr	r3, [r3, #0]
 8004706:	613b      	str	r3, [r7, #16]
 8004708:	6b5a      	ldr	r2, [r3, #52]	@ 0x34
 800470a:	60fa      	str	r2, [r7, #12]
 800470c:	635f      	str	r7, [r3, #52]	@ 0x34
 800470e:	f7fb fd6d 	bl	80001ec <CPU_SR_Restore>
 8004712:	f8a8 a000 	strh.w	sl, [r8]
 8004716:	e790      	b.n	800463a <OSMutexPend+0x36>
 8004718:	4611      	mov	r1, r2
 800471a:	4618      	mov	r0, r3
 800471c:	f000 faf0 	bl	8004d00 <OS_TaskChangePrio>
 8004720:	6821      	ldr	r1, [r4, #0]
 8004722:	e7bb      	b.n	800469c <OSMutexPend+0x98>
 8004724:	f7fb fd62 	bl	80001ec <CPU_SR_Restore>
 8004728:	f246 13b0 	movw	r3, #25008	@ 0x61b0
 800472c:	f8a8 3000 	strh.w	r3, [r8]
 8004730:	e783      	b.n	800463a <OSMutexPend+0x36>
 8004732:	f7fb fd5b 	bl	80001ec <CPU_SR_Restore>
 8004736:	f646 5363 	movw	r3, #28003	@ 0x6d63
 800473a:	f8a8 3000 	strh.w	r3, [r8]
 800473e:	e77c      	b.n	800463a <OSMutexPend+0x36>
 8004740:	f7fb fd54 	bl	80001ec <CPU_SR_Restore>
 8004744:	f245 7384 	movw	r3, #22404	@ 0x5784
 8004748:	f8a8 3000 	strh.w	r3, [r8]
 800474c:	e775      	b.n	800463a <OSMutexPend+0x36>
 800474e:	f646 652e 	movw	r5, #28206	@ 0x6e2e
 8004752:	e7bb      	b.n	80046cc <OSMutexPend+0xc8>
 8004754:	20001bfe 	.word	0x20001bfe
 8004758:	20001bfd 	.word	0x20001bfd
 800475c:	5854554d 	.word	0x5854554d
 8004760:	2000192c 	.word	0x2000192c
 8004764:	20001ae0 	.word	0x20001ae0

08004768 <OS_MutexGrpAdd>:
 8004768:	6b43      	ldr	r3, [r0, #52]	@ 0x34
 800476a:	60cb      	str	r3, [r1, #12]
 800476c:	6341      	str	r1, [r0, #52]	@ 0x34
 800476e:	4770      	bx	lr

08004770 <OS_MutexGrpRemove>:
 8004770:	6b43      	ldr	r3, [r0, #52]	@ 0x34
 8004772:	428b      	cmp	r3, r1
 8004774:	d007      	beq.n	8004786 <OS_MutexGrpRemove+0x16>
 8004776:	461a      	mov	r2, r3
 8004778:	68db      	ldr	r3, [r3, #12]
 800477a:	4299      	cmp	r1, r3
 800477c:	d1fb      	bne.n	8004776 <OS_MutexGrpRemove+0x6>
 800477e:	320c      	adds	r2, #12
 8004780:	68db      	ldr	r3, [r3, #12]
 8004782:	6013      	str	r3, [r2, #0]
 8004784:	4770      	bx	lr
 8004786:	f100 0234 	add.w	r2, r0, #52	@ 0x34
 800478a:	68db      	ldr	r3, [r3, #12]
 800478c:	6013      	str	r3, [r2, #0]
 800478e:	4770      	bx	lr

08004790 <OS_MutexGrpPrioFindHighest>:
 8004790:	6b43      	ldr	r3, [r0, #52]	@ 0x34
 8004792:	201f      	movs	r0, #31
 8004794:	b153      	cbz	r3, 80047ac <OS_MutexGrpPrioFindHighest+0x1c>
 8004796:	685a      	ldr	r2, [r3, #4]
 8004798:	b122      	cbz	r2, 80047a4 <OS_MutexGrpPrioFindHighest+0x14>
 800479a:	f892 202f 	ldrb.w	r2, [r2, #47]	@ 0x2f
 800479e:	4290      	cmp	r0, r2
 80047a0:	bf28      	it	cs
 80047a2:	4610      	movcs	r0, r2
 80047a4:	68db      	ldr	r3, [r3, #12]
 80047a6:	2b00      	cmp	r3, #0
 80047a8:	d1f5      	bne.n	8004796 <OS_MutexGrpPrioFindHighest+0x6>
 80047aa:	4770      	bx	lr
 80047ac:	4770      	bx	lr
 80047ae:	bf00      	nop

080047b0 <OS_MutexGrpPostAll>:
 80047b0:	6b43      	ldr	r3, [r0, #52]	@ 0x34
 80047b2:	2b00      	cmp	r3, #0
 80047b4:	d031      	beq.n	800481a <OS_MutexGrpPostAll+0x6a>
 80047b6:	e92d 41f0 	stmdb	sp!, {r4, r5, r6, r7, r8, lr}
 80047ba:	4605      	mov	r5, r0
 80047bc:	f100 0834 	add.w	r8, r0, #52	@ 0x34
 80047c0:	4618      	mov	r0, r3
 80047c2:	4283      	cmp	r3, r0
 80047c4:	68c4      	ldr	r4, [r0, #12]
 80047c6:	b082      	sub	sp, #8
 80047c8:	f04f 0701 	mov.w	r7, #1
 80047cc:	f04f 0600 	mov.w	r6, #0
 80047d0:	d017      	beq.n	8004802 <OS_MutexGrpPostAll+0x52>
 80047d2:	461a      	mov	r2, r3
 80047d4:	68db      	ldr	r3, [r3, #12]
 80047d6:	4283      	cmp	r3, r0
 80047d8:	d1fb      	bne.n	80047d2 <OS_MutexGrpPostAll+0x22>
 80047da:	6841      	ldr	r1, [r0, #4]
 80047dc:	60d4      	str	r4, [r2, #12]
 80047de:	320c      	adds	r2, #12
 80047e0:	b1a1      	cbz	r1, 800480c <OS_MutexGrpPostAll+0x5c>
 80047e2:	7507      	strb	r7, [r0, #20]
 80047e4:	6b4a      	ldr	r2, [r1, #52]	@ 0x34
 80047e6:	2300      	movs	r3, #0
 80047e8:	e9c0 2503 	strd	r2, r5, [r0, #12]
 80047ec:	6348      	str	r0, [r1, #52]	@ 0x34
 80047ee:	461a      	mov	r2, r3
 80047f0:	9600      	str	r6, [sp, #0]
 80047f2:	f7ff fae1 	bl	8003db8 <OS_Post>
 80047f6:	b16c      	cbz	r4, 8004814 <OS_MutexGrpPostAll+0x64>
 80047f8:	6b6b      	ldr	r3, [r5, #52]	@ 0x34
 80047fa:	4620      	mov	r0, r4
 80047fc:	4283      	cmp	r3, r0
 80047fe:	68c4      	ldr	r4, [r0, #12]
 8004800:	d1e7      	bne.n	80047d2 <OS_MutexGrpPostAll+0x22>
 8004802:	6841      	ldr	r1, [r0, #4]
 8004804:	4642      	mov	r2, r8
 8004806:	6014      	str	r4, [r2, #0]
 8004808:	2900      	cmp	r1, #0
 800480a:	d1ea      	bne.n	80047e2 <OS_MutexGrpPostAll+0x32>
 800480c:	7501      	strb	r1, [r0, #20]
 800480e:	6101      	str	r1, [r0, #16]
 8004810:	2c00      	cmp	r4, #0
 8004812:	d1f1      	bne.n	80047f8 <OS_MutexGrpPostAll+0x48>
 8004814:	b002      	add	sp, #8
 8004816:	e8bd 81f0 	ldmia.w	sp!, {r4, r5, r6, r7, r8, pc}
 800481a:	4770      	bx	lr

0800481c <OS_PrioInit>:
 800481c:	4b01      	ldr	r3, [pc, #4]	@ (8004824 <OS_PrioInit+0x8>)
 800481e:	2200      	movs	r2, #0
 8004820:	601a      	str	r2, [r3, #0]
 8004822:	4770      	bx	lr
 8004824:	20001be4 	.word	0x20001be4

08004828 <OS_PrioGetHighest>:
 8004828:	b508      	push	{r3, lr}
 800482a:	4b03      	ldr	r3, [pc, #12]	@ (8004838 <OS_PrioGetHighest+0x10>)
 800482c:	6818      	ldr	r0, [r3, #0]
 800482e:	f7fb fcea 	bl	8000206 <CPU_CntLeadZeros>
 8004832:	b2c0      	uxtb	r0, r0
 8004834:	bd08      	pop	{r3, pc}
 8004836:	bf00      	nop
 8004838:	20001be4 	.word	0x20001be4

0800483c <OS_PrioInsert>:
 800483c:	4903      	ldr	r1, [pc, #12]	@ (800484c <OS_PrioInsert+0x10>)
 800483e:	f04f 4200 	mov.w	r2, #2147483648	@ 0x80000000
 8004842:	680b      	ldr	r3, [r1, #0]
 8004844:	40c2      	lsrs	r2, r0
 8004846:	4313      	orrs	r3, r2
 8004848:	600b      	str	r3, [r1, #0]
 800484a:	4770      	bx	lr
 800484c:	20001be4 	.word	0x20001be4

08004850 <OS_PrioRemove>:
 8004850:	4904      	ldr	r1, [pc, #16]	@ (8004864 <OS_PrioRemove+0x14>)
 8004852:	f04f 4200 	mov.w	r2, #2147483648	@ 0x80000000
 8004856:	680b      	ldr	r3, [r1, #0]
 8004858:	40c2      	lsrs	r2, r0
 800485a:	ea23 0302 	bic.w	r3, r3, r2
 800485e:	600b      	str	r3, [r1, #0]
 8004860:	4770      	bx	lr
 8004862:	bf00      	nop
 8004864:	20001be4 	.word	0x20001be4

08004868 <OSStatReset>:
 8004868:	b538      	push	{r3, r4, r5, lr}
 800486a:	4604      	mov	r4, r0
 800486c:	2040      	movs	r0, #64	@ 0x40
 800486e:	f7fb fcaf 	bl	80001d0 <CPU_SR_Save>
 8004872:	4b03      	ldr	r3, [pc, #12]	@ (8004880 <OSStatReset+0x18>)
 8004874:	2500      	movs	r5, #0
 8004876:	801d      	strh	r5, [r3, #0]
 8004878:	f7fb fcb8 	bl	80001ec <CPU_SR_Restore>
 800487c:	8025      	strh	r5, [r4, #0]
 800487e:	bd38      	pop	{r3, r4, r5, pc}
 8004880:	20001ad4 	.word	0x20001ad4

08004884 <OS_StatTask>:
 8004884:	e92d 4ff0 	stmdb	sp!, {r4, r5, r6, r7, r8, r9, sl, fp, lr}
 8004888:	4c5a      	ldr	r4, [pc, #360]	@ (80049f4 <OS_StatTask+0x170>)
 800488a:	4a5b      	ldr	r2, [pc, #364]	@ (80049f8 <OS_StatTask+0x174>)
 800488c:	7823      	ldrb	r3, [r4, #0]
 800488e:	6816      	ldr	r6, [r2, #0]
 8004890:	2b01      	cmp	r3, #1
 8004892:	b085      	sub	sp, #20
 8004894:	f000 80aa 	beq.w	80049ec <OS_StatTask+0x168>
 8004898:	f10d 070e 	add.w	r7, sp, #14
 800489c:	0075      	lsls	r5, r6, #1
 800489e:	9700      	str	r7, [sp, #0]
 80048a0:	463a      	mov	r2, r7
 80048a2:	2100      	movs	r1, #0
 80048a4:	4628      	mov	r0, r5
 80048a6:	f000 fce1 	bl	800526c <OSTimeDly>
 80048aa:	7823      	ldrb	r3, [r4, #0]
 80048ac:	2b01      	cmp	r3, #1
 80048ae:	d1f7      	bne.n	80048a0 <OS_StatTask+0x1c>
 80048b0:	9800      	ldr	r0, [sp, #0]
 80048b2:	f7ff ffd9 	bl	8004868 <OSStatReset>
 80048b6:	4b51      	ldr	r3, [pc, #324]	@ (80049fc <OS_StatTask+0x178>)
 80048b8:	6818      	ldr	r0, [r3, #0]
 80048ba:	42b0      	cmp	r0, r6
 80048bc:	f240 8091 	bls.w	80049e2 <OS_StatTask+0x15e>
 80048c0:	fbb0 f0f6 	udiv	r0, r0, r6
 80048c4:	4a4e      	ldr	r2, [pc, #312]	@ (8004a00 <OS_StatTask+0x17c>)
 80048c6:	4b4f      	ldr	r3, [pc, #316]	@ (8004a04 <OS_StatTask+0x180>)
 80048c8:	6817      	ldr	r7, [r2, #0]
 80048ca:	f8d3 a000 	ldr.w	sl, [r3]
 80048ce:	4e4e      	ldr	r6, [pc, #312]	@ (8004a08 <OS_StatTask+0x184>)
 80048d0:	4d4e      	ldr	r5, [pc, #312]	@ (8004a0c <OS_StatTask+0x188>)
 80048d2:	f8df b168 	ldr.w	fp, [pc, #360]	@ 8004a3c <OS_StatTask+0x1b8>
 80048d6:	f8df 9168 	ldr.w	r9, [pc, #360]	@ 8004a40 <OS_StatTask+0x1bc>
 80048da:	f8df 8168 	ldr.w	r8, [pc, #360]	@ 8004a44 <OS_StatTask+0x1c0>
 80048de:	9001      	str	r0, [sp, #4]
 80048e0:	2400      	movs	r4, #0
 80048e2:	2040      	movs	r0, #64	@ 0x40
 80048e4:	f7fb fc74 	bl	80001d0 <CPU_SR_Save>
 80048e8:	682a      	ldr	r2, [r5, #0]
 80048ea:	6032      	str	r2, [r6, #0]
 80048ec:	602c      	str	r4, [r5, #0]
 80048ee:	f7fb fc7d 	bl	80001ec <CPU_SR_Restore>
 80048f2:	f8db 1000 	ldr.w	r1, [fp]
 80048f6:	6832      	ldr	r2, [r6, #0]
 80048f8:	4291      	cmp	r1, r2
 80048fa:	d93f      	bls.n	800497c <OS_StatTask+0xf8>
 80048fc:	4b44      	ldr	r3, [pc, #272]	@ (8004a10 <OS_StatTask+0x18c>)
 80048fe:	4299      	cmp	r1, r3
 8004900:	d846      	bhi.n	8004990 <OS_StatTask+0x10c>
 8004902:	f242 7010 	movw	r0, #10000	@ 0x2710
 8004906:	fb00 f202 	mul.w	r2, r0, r2
 800490a:	fbb2 f2f1 	udiv	r2, r2, r1
 800490e:	f5c2 521c 	rsb	r2, r2, #9984	@ 0x2700
 8004912:	f8b9 1000 	ldrh.w	r1, [r9]
 8004916:	4b3f      	ldr	r3, [pc, #252]	@ (8004a14 <OS_StatTask+0x190>)
 8004918:	3210      	adds	r2, #16
 800491a:	b292      	uxth	r2, r2
 800491c:	4291      	cmp	r1, r2
 800491e:	801a      	strh	r2, [r3, #0]
 8004920:	d201      	bcs.n	8004926 <OS_StatTask+0xa2>
 8004922:	f8a9 2000 	strh.w	r2, [r9]
 8004926:	f7fe ff4d 	bl	80037c4 <OSStatTaskHook>
 800492a:	683a      	ldr	r2, [r7, #0]
 800492c:	bb6a      	cbnz	r2, 800498a <OS_StatTask+0x106>
 800492e:	f1ba 0f00 	cmp.w	sl, #0
 8004932:	d04c      	beq.n	80049ce <OS_StatTask+0x14a>
 8004934:	4638      	mov	r0, r7
 8004936:	e001      	b.n	800493c <OS_StatTask+0xb8>
 8004938:	4552      	cmp	r2, sl
 800493a:	d006      	beq.n	800494a <OS_StatTask+0xc6>
 800493c:	f850 1f04 	ldr.w	r1, [r0, #4]!
 8004940:	3201      	adds	r2, #1
 8004942:	2900      	cmp	r1, #0
 8004944:	d0f8      	beq.n	8004938 <OS_StatTask+0xb4>
 8004946:	ebaa 0102 	sub.w	r1, sl, r2
 800494a:	4b33      	ldr	r3, [pc, #204]	@ (8004a18 <OS_StatTask+0x194>)
 800494c:	601a      	str	r2, [r3, #0]
 800494e:	f898 2000 	ldrb.w	r2, [r8]
 8004952:	4b32      	ldr	r3, [pc, #200]	@ (8004a1c <OS_StatTask+0x198>)
 8004954:	2a01      	cmp	r2, #1
 8004956:	6019      	str	r1, [r3, #0]
 8004958:	d10a      	bne.n	8004970 <OS_StatTask+0xec>
 800495a:	2040      	movs	r0, #64	@ 0x40
 800495c:	f888 4000 	strb.w	r4, [r8]
 8004960:	f7fb fc36 	bl	80001d0 <CPU_SR_Save>
 8004964:	f8a9 4000 	strh.w	r4, [r9]
 8004968:	f7fb fc40 	bl	80001ec <CPU_SR_Restore>
 800496c:	f8ad 400e 	strh.w	r4, [sp, #14]
 8004970:	9a00      	ldr	r2, [sp, #0]
 8004972:	9801      	ldr	r0, [sp, #4]
 8004974:	2100      	movs	r1, #0
 8004976:	f000 fc79 	bl	800526c <OSTimeDly>
 800497a:	e7b2      	b.n	80048e2 <OS_StatTask+0x5e>
 800497c:	4b25      	ldr	r3, [pc, #148]	@ (8004a14 <OS_StatTask+0x190>)
 800497e:	801c      	strh	r4, [r3, #0]
 8004980:	f7fe ff20 	bl	80037c4 <OSStatTaskHook>
 8004984:	683a      	ldr	r2, [r7, #0]
 8004986:	2a00      	cmp	r2, #0
 8004988:	d0d1      	beq.n	800492e <OS_StatTask+0xaa>
 800498a:	4651      	mov	r1, sl
 800498c:	2200      	movs	r2, #0
 800498e:	e7dc      	b.n	800494a <OS_StatTask+0xc6>
 8004990:	4823      	ldr	r0, [pc, #140]	@ (8004a20 <OS_StatTask+0x19c>)
 8004992:	4281      	cmp	r1, r0
 8004994:	d808      	bhi.n	80049a8 <OS_StatTask+0x124>
 8004996:	4823      	ldr	r0, [pc, #140]	@ (8004a24 <OS_StatTask+0x1a0>)
 8004998:	fba0 1001 	umull	r1, r0, r0, r1
 800499c:	08c1      	lsrs	r1, r0, #3
 800499e:	f44f 707a 	mov.w	r0, #1000	@ 0x3e8
 80049a2:	fb00 f202 	mul.w	r2, r0, r2
 80049a6:	e7b0      	b.n	800490a <OS_StatTask+0x86>
 80049a8:	481f      	ldr	r0, [pc, #124]	@ (8004a28 <OS_StatTask+0x1a4>)
 80049aa:	4281      	cmp	r1, r0
 80049ac:	d207      	bcs.n	80049be <OS_StatTask+0x13a>
 80049ae:	4b1f      	ldr	r3, [pc, #124]	@ (8004a2c <OS_StatTask+0x1a8>)
 80049b0:	fba3 0101 	umull	r0, r1, r3, r1
 80049b4:	2064      	movs	r0, #100	@ 0x64
 80049b6:	0949      	lsrs	r1, r1, #5
 80049b8:	fb00 f202 	mul.w	r2, r0, r2
 80049bc:	e7a5      	b.n	800490a <OS_StatTask+0x86>
 80049be:	4b1c      	ldr	r3, [pc, #112]	@ (8004a30 <OS_StatTask+0x1ac>)
 80049c0:	4299      	cmp	r1, r3
 80049c2:	d906      	bls.n	80049d2 <OS_StatTask+0x14e>
 80049c4:	4b1b      	ldr	r3, [pc, #108]	@ (8004a34 <OS_StatTask+0x1b0>)
 80049c6:	fba3 0101 	umull	r0, r1, r3, r1
 80049ca:	0b49      	lsrs	r1, r1, #13
 80049cc:	e79d      	b.n	800490a <OS_StatTask+0x86>
 80049ce:	4651      	mov	r1, sl
 80049d0:	e7bb      	b.n	800494a <OS_StatTask+0xc6>
 80049d2:	4b19      	ldr	r3, [pc, #100]	@ (8004a38 <OS_StatTask+0x1b4>)
 80049d4:	eb02 0282 	add.w	r2, r2, r2, lsl #2
 80049d8:	fba3 0101 	umull	r0, r1, r3, r1
 80049dc:	0052      	lsls	r2, r2, #1
 80049de:	0989      	lsrs	r1, r1, #6
 80049e0:	e793      	b.n	800490a <OS_StatTask+0x86>
 80049e2:	4b10      	ldr	r3, [pc, #64]	@ (8004a24 <OS_StatTask+0x1a0>)
 80049e4:	fba3 3000 	umull	r3, r0, r3, r0
 80049e8:	08c0      	lsrs	r0, r0, #3
 80049ea:	e76b      	b.n	80048c4 <OS_StatTask+0x40>
 80049ec:	f10d 030e 	add.w	r3, sp, #14
 80049f0:	9300      	str	r3, [sp, #0]
 80049f2:	e75d      	b.n	80048b0 <OS_StatTask+0x2c>
 80049f4:	20001ac4 	.word	0x20001ac4
 80049f8:	080059f8 	.word	0x080059f8
 80049fc:	080059e4 	.word	0x080059e4
 8004a00:	08005a0c 	.word	0x08005a0c
 8004a04:	08005a08 	.word	0x08005a08
 8004a08:	20001ac8 	.word	0x20001ac8
 8004a0c:	20001ad0 	.word	0x20001ad0
 8004a10:	00061a7f 	.word	0x00061a7f
 8004a14:	20001ad6 	.word	0x20001ad6
 8004a18:	20001bf8 	.word	0x20001bf8
 8004a1c:	20001bf4 	.word	0x20001bf4
 8004a20:	003d08ff 	.word	0x003d08ff
 8004a24:	cccccccd 	.word	0xcccccccd
 8004a28:	02625a00 	.word	0x02625a00
 8004a2c:	51eb851f 	.word	0x51eb851f
 8004a30:	17d783ff 	.word	0x17d783ff
 8004a34:	d1b71759 	.word	0xd1b71759
 8004a38:	10624dd3 	.word	0x10624dd3
 8004a3c:	20001acc 	.word	0x20001acc
 8004a40:	20001ad4 	.word	0x20001ad4
 8004a44:	20001ad8 	.word	0x20001ad8

08004a48 <OS_StatTaskInit>:
 8004a48:	4b1f      	ldr	r3, [pc, #124]	@ (8004ac8 <OS_StatTaskInit+0x80>)
 8004a4a:	4a20      	ldr	r2, [pc, #128]	@ (8004acc <OS_StatTaskInit+0x84>)
 8004a4c:	6819      	ldr	r1, [r3, #0]
 8004a4e:	2300      	movs	r3, #0
 8004a50:	b530      	push	{r4, r5, lr}
 8004a52:	6013      	str	r3, [r2, #0]
 8004a54:	4a1e      	ldr	r2, [pc, #120]	@ (8004ad0 <OS_StatTaskInit+0x88>)
 8004a56:	4c1f      	ldr	r4, [pc, #124]	@ (8004ad4 <OS_StatTaskInit+0x8c>)
 8004a58:	7013      	strb	r3, [r2, #0]
 8004a5a:	4a1f      	ldr	r2, [pc, #124]	@ (8004ad8 <OS_StatTaskInit+0x90>)
 8004a5c:	6023      	str	r3, [r4, #0]
 8004a5e:	6013      	str	r3, [r2, #0]
 8004a60:	4d1e      	ldr	r5, [pc, #120]	@ (8004adc <OS_StatTaskInit+0x94>)
 8004a62:	4c1f      	ldr	r4, [pc, #124]	@ (8004ae0 <OS_StatTaskInit+0x98>)
 8004a64:	4a1f      	ldr	r2, [pc, #124]	@ (8004ae4 <OS_StatTaskInit+0x9c>)
 8004a66:	602b      	str	r3, [r5, #0]
 8004a68:	b08b      	sub	sp, #44	@ 0x2c
 8004a6a:	7023      	strb	r3, [r4, #0]
 8004a6c:	6013      	str	r3, [r2, #0]
 8004a6e:	b331      	cbz	r1, 8004abe <OS_StatTaskInit+0x76>
 8004a70:	4a1d      	ldr	r2, [pc, #116]	@ (8004ae8 <OS_StatTaskInit+0xa0>)
 8004a72:	4c1e      	ldr	r4, [pc, #120]	@ (8004aec <OS_StatTaskInit+0xa4>)
 8004a74:	6812      	ldr	r2, [r2, #0]
 8004a76:	6824      	ldr	r4, [r4, #0]
 8004a78:	42a2      	cmp	r2, r4
 8004a7a:	d31b      	bcc.n	8004ab4 <OS_StatTaskInit+0x6c>
 8004a7c:	4c1c      	ldr	r4, [pc, #112]	@ (8004af0 <OS_StatTaskInit+0xa8>)
 8004a7e:	7824      	ldrb	r4, [r4, #0]
 8004a80:	2c1e      	cmp	r4, #30
 8004a82:	d904      	bls.n	8004a8e <OS_StatTaskInit+0x46>
 8004a84:	f646 632a 	movw	r3, #28202	@ 0x6e2a
 8004a88:	8003      	strh	r3, [r0, #0]
 8004a8a:	b00b      	add	sp, #44	@ 0x2c
 8004a8c:	bd30      	pop	{r4, r5, pc}
 8004a8e:	9008      	str	r0, [sp, #32]
 8004a90:	2003      	movs	r0, #3
 8004a92:	9007      	str	r0, [sp, #28]
 8004a94:	4817      	ldr	r0, [pc, #92]	@ (8004af4 <OS_StatTaskInit+0xac>)
 8004a96:	9306      	str	r3, [sp, #24]
 8004a98:	6800      	ldr	r0, [r0, #0]
 8004a9a:	e9cd 4100 	strd	r4, r1, [sp]
 8004a9e:	e9cd 0202 	strd	r0, r2, [sp, #8]
 8004aa2:	e9cd 3304 	strd	r3, r3, [sp, #16]
 8004aa6:	4a14      	ldr	r2, [pc, #80]	@ (8004af8 <OS_StatTaskInit+0xb0>)
 8004aa8:	4814      	ldr	r0, [pc, #80]	@ (8004afc <OS_StatTaskInit+0xb4>)
 8004aaa:	4619      	mov	r1, r3
 8004aac:	f000 f828 	bl	8004b00 <OSTaskCreate>
 8004ab0:	b00b      	add	sp, #44	@ 0x2c
 8004ab2:	bd30      	pop	{r4, r5, pc}
 8004ab4:	f646 632c 	movw	r3, #28204	@ 0x6e2c
 8004ab8:	8003      	strh	r3, [r0, #0]
 8004aba:	b00b      	add	sp, #44	@ 0x2c
 8004abc:	bd30      	pop	{r4, r5, pc}
 8004abe:	f646 632b 	movw	r3, #28203	@ 0x6e2b
 8004ac2:	8003      	strh	r3, [r0, #0]
 8004ac4:	b00b      	add	sp, #44	@ 0x2c
 8004ac6:	bd30      	pop	{r4, r5, pc}
 8004ac8:	080059f4 	.word	0x080059f4
 8004acc:	20001ac8 	.word	0x20001ac8
 8004ad0:	20001ac4 	.word	0x20001ac4
 8004ad4:	20001acc 	.word	0x20001acc
 8004ad8:	20001bf8 	.word	0x20001bf8
 8004adc:	20001ad0 	.word	0x20001ad0
 8004ae0:	20001ad8 	.word	0x20001ad8
 8004ae4:	20001bf4 	.word	0x20001bf4
 8004ae8:	080059ec 	.word	0x080059ec
 8004aec:	080059e8 	.word	0x080059e8
 8004af0:	080059fc 	.word	0x080059fc
 8004af4:	080059f0 	.word	0x080059f0
 8004af8:	08004885 	.word	0x08004885
 8004afc:	20001a1c 	.word	0x20001a1c

08004b00 <OSTaskCreate>:
 8004b00:	e92d 4ff0 	stmdb	sp!, {r4, r5, r6, r7, r8, r9, sl, fp, lr}
 8004b04:	b089      	sub	sp, #36	@ 0x24
 8004b06:	4615      	mov	r5, r2
 8004b08:	f8bd 1058 	ldrh.w	r1, [sp, #88]	@ 0x58
 8004b0c:	9303      	str	r3, [sp, #12]
 8004b0e:	4b70      	ldr	r3, [pc, #448]	@ (8004cd0 <OSTaskCreate+0x1d0>)
 8004b10:	9104      	str	r1, [sp, #16]
 8004b12:	e9dd 6117 	ldrd	r6, r1, [sp, #92]	@ 0x5c
 8004b16:	781a      	ldrb	r2, [r3, #0]
 8004b18:	f89d a048 	ldrb.w	sl, [sp, #72]	@ 0x48
 8004b1c:	f8dd 904c 	ldr.w	r9, [sp, #76]	@ 0x4c
 8004b20:	f8bd b064 	ldrh.w	fp, [sp, #100]	@ 0x64
 8004b24:	9f1a      	ldr	r7, [sp, #104]	@ 0x68
 8004b26:	9105      	str	r1, [sp, #20]
 8004b28:	e9dd 3814 	ldrd	r3, r8, [sp, #80]	@ 0x50
 8004b2c:	b9d2      	cbnz	r2, 8004b64 <OSTaskCreate+0x64>
 8004b2e:	4604      	mov	r4, r0
 8004b30:	2800      	cmp	r0, #0
 8004b32:	f000 80b7 	beq.w	8004ca4 <OSTaskCreate+0x1a4>
 8004b36:	b1dd      	cbz	r5, 8004b70 <OSTaskCreate+0x70>
 8004b38:	f1b9 0f00 	cmp.w	r9, #0
 8004b3c:	f000 80b8 	beq.w	8004cb0 <OSTaskCreate+0x1b0>
 8004b40:	4a64      	ldr	r2, [pc, #400]	@ (8004cd4 <OSTaskCreate+0x1d4>)
 8004b42:	6812      	ldr	r2, [r2, #0]
 8004b44:	4542      	cmp	r2, r8
 8004b46:	f200 80a7 	bhi.w	8004c98 <OSTaskCreate+0x198>
 8004b4a:	4598      	cmp	r8, r3
 8004b4c:	d914      	bls.n	8004b78 <OSTaskCreate+0x78>
 8004b4e:	f1ba 0f1f 	cmp.w	sl, #31
 8004b52:	d803      	bhi.n	8004b5c <OSTaskCreate+0x5c>
 8004b54:	d114      	bne.n	8004b80 <OSTaskCreate+0x80>
 8004b56:	4a60      	ldr	r2, [pc, #384]	@ (8004cd8 <OSTaskCreate+0x1d8>)
 8004b58:	4290      	cmp	r0, r2
 8004b5a:	d011      	beq.n	8004b80 <OSTaskCreate+0x80>
 8004b5c:	f246 2373 	movw	r3, #25203	@ 0x6273
 8004b60:	803b      	strh	r3, [r7, #0]
 8004b62:	e002      	b.n	8004b6a <OSTaskCreate+0x6a>
 8004b64:	f247 134a 	movw	r3, #29002	@ 0x714a
 8004b68:	803b      	strh	r3, [r7, #0]
 8004b6a:	b009      	add	sp, #36	@ 0x24
 8004b6c:	e8bd 8ff0 	ldmia.w	sp!, {r4, r5, r6, r7, r8, r9, sl, fp, pc}
 8004b70:	f247 134f 	movw	r3, #29007	@ 0x714f
 8004b74:	803b      	strh	r3, [r7, #0]
 8004b76:	e7f8      	b.n	8004b6a <OSTaskCreate+0x6a>
 8004b78:	f646 6331 	movw	r3, #28209	@ 0x6e31
 8004b7c:	803b      	strh	r3, [r7, #0]
 8004b7e:	e7f4      	b.n	8004b6a <OSTaskCreate+0x6a>
 8004b80:	2100      	movs	r1, #0
 8004b82:	e9c4 1101 	strd	r1, r1, [r4, #4]
 8004b86:	e9c4 1103 	strd	r1, r1, [r4, #12]
 8004b8a:	e9c4 1105 	strd	r1, r1, [r4, #20]
 8004b8e:	6021      	str	r1, [r4, #0]
 8004b90:	61e1      	str	r1, [r4, #28]
 8004b92:	6561      	str	r1, [r4, #84]	@ 0x54
 8004b94:	f8a4 1058 	strh.w	r1, [r4, #88]	@ 0x58
 8004b98:	f104 005c 	add.w	r0, r4, #92	@ 0x5c
 8004b9c:	9306      	str	r3, [sp, #24]
 8004b9e:	9007      	str	r0, [sp, #28]
 8004ba0:	f7ff fcfe 	bl	80045a0 <OS_MsgQInit>
 8004ba4:	f04f 5200 	mov.w	r2, #536870912	@ 0x20000000
 8004ba8:	2100      	movs	r1, #0
 8004baa:	62e2      	str	r2, [r4, #44]	@ 0x2c
 8004bac:	f01b 0f03 	tst.w	fp, #3
 8004bb0:	f04f 0220 	mov.w	r2, #32
 8004bb4:	e9c4 111a 	strd	r1, r1, [r4, #104]	@ 0x68
 8004bb8:	e9c4 1126 	strd	r1, r1, [r4, #152]	@ 0x98
 8004bbc:	e9c4 1128 	strd	r1, r1, [r4, #160]	@ 0xa0
 8004bc0:	e9c4 1111 	strd	r1, r1, [r4, #68]	@ 0x44
 8004bc4:	e9c4 1113 	strd	r1, r1, [r4, #76]	@ 0x4c
 8004bc8:	e9c4 1120 	strd	r1, r1, [r4, #128]	@ 0x80
 8004bcc:	e9c4 1122 	strd	r1, r1, [r4, #136]	@ 0x88
 8004bd0:	e9c4 1108 	strd	r1, r1, [r4, #32]
 8004bd4:	6761      	str	r1, [r4, #116]	@ 0x74
 8004bd6:	f8a4 107c 	strh.w	r1, [r4, #124]	@ 0x7c
 8004bda:	67a1      	str	r1, [r4, #120]	@ 0x78
 8004bdc:	6721      	str	r1, [r4, #112]	@ 0x70
 8004bde:	6421      	str	r1, [r4, #64]	@ 0x40
 8004be0:	63a1      	str	r1, [r4, #56]	@ 0x38
 8004be2:	f884 107e 	strb.w	r1, [r4, #126]	@ 0x7e
 8004be6:	87a1      	strh	r1, [r4, #60]	@ 0x3c
 8004be8:	f8c4 1090 	str.w	r1, [r4, #144]	@ 0x90
 8004bec:	62a1      	str	r1, [r4, #40]	@ 0x28
 8004bee:	6361      	str	r1, [r4, #52]	@ 0x34
 8004bf0:	f884 2030 	strb.w	r2, [r4, #48]	@ 0x30
 8004bf4:	9b06      	ldr	r3, [sp, #24]
 8004bf6:	8039      	strh	r1, [r7, #0]
 8004bf8:	d008      	beq.n	8004c0c <OSTaskCreate+0x10c>
 8004bfa:	f01b 0f02 	tst.w	fp, #2
 8004bfe:	d005      	beq.n	8004c0c <OSTaskCreate+0x10c>
 8004c00:	ea4f 0288 	mov.w	r2, r8, lsl #2
 8004c04:	4648      	mov	r0, r9
 8004c06:	f000 fe57 	bl	80058b8 <memset>
 8004c0a:	9b06      	ldr	r3, [sp, #24]
 8004c0c:	9903      	ldr	r1, [sp, #12]
 8004c0e:	eb09 0383 	add.w	r3, r9, r3, lsl #2
 8004c12:	e9cd 8b00 	strd	r8, fp, [sp]
 8004c16:	4628      	mov	r0, r5
 8004c18:	464a      	mov	r2, r9
 8004c1a:	9303      	str	r3, [sp, #12]
 8004c1c:	f7fe fdf4 	bl	8003808 <OSTaskStkInit>
 8004c20:	4581      	cmp	r9, r0
 8004c22:	9b03      	ldr	r3, [sp, #12]
 8004c24:	d848      	bhi.n	8004cb8 <OSTaskCreate+0x1b8>
 8004c26:	60a3      	str	r3, [r4, #8]
 8004c28:	f04f 0300 	mov.w	r3, #0
 8004c2c:	f36a 0307 	bfi	r3, sl, #0, #8
 8004c30:	f36a 230f 	bfi	r3, sl, #8, #8
 8004c34:	6020      	str	r0, [r4, #0]
 8004c36:	64e6      	str	r6, [r4, #76]	@ 0x4c
 8004c38:	f8a4 302f 	strh.w	r3, [r4, #47]	@ 0x2f
 8004c3c:	b90e      	cbnz	r6, 8004c42 <OSTaskCreate+0x142>
 8004c3e:	4b27      	ldr	r3, [pc, #156]	@ (8004cdc <OSTaskCreate+0x1dc>)
 8004c40:	681e      	ldr	r6, [r3, #0]
 8004c42:	9b05      	ldr	r3, [sp, #20]
 8004c44:	6063      	str	r3, [r4, #4]
 8004c46:	2300      	movs	r3, #0
 8004c48:	9904      	ldr	r1, [sp, #16]
 8004c4a:	6723      	str	r3, [r4, #112]	@ 0x70
 8004c4c:	9807      	ldr	r0, [sp, #28]
 8004c4e:	6526      	str	r6, [r4, #80]	@ 0x50
 8004c50:	f8c4 901c 	str.w	r9, [r4, #28]
 8004c54:	f8c4 8038 	str.w	r8, [r4, #56]	@ 0x38
 8004c58:	f8a4 b03c 	strh.w	fp, [r4, #60]	@ 0x3c
 8004c5c:	f7ff fca0 	bl	80045a0 <OS_MsgQInit>
 8004c60:	4620      	mov	r0, r4
 8004c62:	f7fe fdb7 	bl	80037d4 <OSTaskCreateHook>
 8004c66:	2040      	movs	r0, #64	@ 0x40
 8004c68:	f7fb fab2 	bl	80001d0 <CPU_SR_Save>
 8004c6c:	4605      	mov	r5, r0
 8004c6e:	f894 002f 	ldrb.w	r0, [r4, #47]	@ 0x2f
 8004c72:	f7ff fde3 	bl	800483c <OS_PrioInsert>
 8004c76:	4620      	mov	r0, r4
 8004c78:	f7ff f988 	bl	8003f8c <OS_RdyListInsertTail>
 8004c7c:	4a18      	ldr	r2, [pc, #96]	@ (8004ce0 <OSTaskCreate+0x1e0>)
 8004c7e:	4919      	ldr	r1, [pc, #100]	@ (8004ce4 <OSTaskCreate+0x1e4>)
 8004c80:	8813      	ldrh	r3, [r2, #0]
 8004c82:	7809      	ldrb	r1, [r1, #0]
 8004c84:	3301      	adds	r3, #1
 8004c86:	2901      	cmp	r1, #1
 8004c88:	8013      	strh	r3, [r2, #0]
 8004c8a:	4628      	mov	r0, r5
 8004c8c:	d018      	beq.n	8004cc0 <OSTaskCreate+0x1c0>
 8004c8e:	b009      	add	sp, #36	@ 0x24
 8004c90:	e8bd 4ff0 	ldmia.w	sp!, {r4, r5, r6, r7, r8, r9, sl, fp, lr}
 8004c94:	f7fb baaa 	b.w	80001ec <CPU_SR_Restore>
 8004c98:	f646 6330 	movw	r3, #28208	@ 0x6e30
 8004c9c:	803b      	strh	r3, [r7, #0]
 8004c9e:	b009      	add	sp, #36	@ 0x24
 8004ca0:	e8bd 8ff0 	ldmia.w	sp!, {r4, r5, r6, r7, r8, r9, sl, fp, pc}
 8004ca4:	f247 13ad 	movw	r3, #29101	@ 0x71ad
 8004ca8:	803b      	strh	r3, [r7, #0]
 8004caa:	b009      	add	sp, #36	@ 0x24
 8004cac:	e8bd 8ff0 	ldmia.w	sp!, {r4, r5, r6, r7, r8, r9, sl, fp, pc}
 8004cb0:	f646 632f 	movw	r3, #28207	@ 0x6e2f
 8004cb4:	803b      	strh	r3, [r7, #0]
 8004cb6:	e758      	b.n	8004b6a <OSTaskCreate+0x6a>
 8004cb8:	f646 6332 	movw	r3, #28210	@ 0x6e32
 8004cbc:	803b      	strh	r3, [r7, #0]
 8004cbe:	e754      	b.n	8004b6a <OSTaskCreate+0x6a>
 8004cc0:	f7fb fa94 	bl	80001ec <CPU_SR_Restore>
 8004cc4:	b009      	add	sp, #36	@ 0x24
 8004cc6:	e8bd 4ff0 	ldmia.w	sp!, {r4, r5, r6, r7, r8, r9, sl, fp, lr}
 8004cca:	f7fe bf41 	b.w	8003b50 <OSSched>
 8004cce:	bf00      	nop
 8004cd0:	20001bfe 	.word	0x20001bfe
 8004cd4:	080059e8 	.word	0x080059e8
 8004cd8:	20001c00 	.word	0x20001c00
 8004cdc:	20001adc 	.word	0x20001adc
 8004ce0:	20001a16 	.word	0x20001a16
 8004ce4:	20001bfd 	.word	0x20001bfd

08004ce8 <OS_TaskInit>:
 8004ce8:	4903      	ldr	r1, [pc, #12]	@ (8004cf8 <OS_TaskInit+0x10>)
 8004cea:	4a04      	ldr	r2, [pc, #16]	@ (8004cfc <OS_TaskInit+0x14>)
 8004cec:	2300      	movs	r3, #0
 8004cee:	800b      	strh	r3, [r1, #0]
 8004cf0:	6013      	str	r3, [r2, #0]
 8004cf2:	8003      	strh	r3, [r0, #0]
 8004cf4:	4770      	bx	lr
 8004cf6:	bf00      	nop
 8004cf8:	20001a16 	.word	0x20001a16
 8004cfc:	20001a18 	.word	0x20001a18

08004d00 <OS_TaskChangePrio>:
 8004d00:	b570      	push	{r4, r5, r6, lr}
 8004d02:	4604      	mov	r4, r0
 8004d04:	460d      	mov	r5, r1
 8004d06:	f894 302e 	ldrb.w	r3, [r4, #46]	@ 0x2e
 8004d0a:	f894 602f 	ldrb.w	r6, [r4, #47]	@ 0x2f
 8004d0e:	2b07      	cmp	r3, #7
 8004d10:	d816      	bhi.n	8004d40 <OS_TaskChangePrio+0x40>
 8004d12:	e8df f003 	tbb	[pc, r3]
 8004d16:	1316      	.short	0x1316
 8004d18:	13130404 	.word	0x13130404
 8004d1c:	0404      	.short	0x0404
 8004d1e:	f894 302c 	ldrb.w	r3, [r4, #44]	@ 0x2c
 8004d22:	f884 502f 	strb.w	r5, [r4, #47]	@ 0x2f
 8004d26:	2b04      	cmp	r3, #4
 8004d28:	d01f      	beq.n	8004d6a <OS_TaskChangePrio+0x6a>
 8004d2a:	d91b      	bls.n	8004d64 <OS_TaskChangePrio+0x64>
 8004d2c:	3b05      	subs	r3, #5
 8004d2e:	2b01      	cmp	r3, #1
 8004d30:	d806      	bhi.n	8004d40 <OS_TaskChangePrio+0x40>
 8004d32:	4620      	mov	r0, r4
 8004d34:	e8bd 4070 	ldmia.w	sp!, {r4, r5, r6, lr}
 8004d38:	f7fe bfec 	b.w	8003d14 <OS_PendListChangePrio>
 8004d3c:	f884 502f 	strb.w	r5, [r4, #47]	@ 0x2f
 8004d40:	bd70      	pop	{r4, r5, r6, pc}
 8004d42:	4620      	mov	r0, r4
 8004d44:	f7ff f942 	bl	8003fcc <OS_RdyListRemove>
 8004d48:	4628      	mov	r0, r5
 8004d4a:	f884 502f 	strb.w	r5, [r4, #47]	@ 0x2f
 8004d4e:	f7ff fd75 	bl	800483c <OS_PrioInsert>
 8004d52:	4b16      	ldr	r3, [pc, #88]	@ (8004dac <OS_TaskChangePrio+0xac>)
 8004d54:	681b      	ldr	r3, [r3, #0]
 8004d56:	42a3      	cmp	r3, r4
 8004d58:	4620      	mov	r0, r4
 8004d5a:	d01f      	beq.n	8004d9c <OS_TaskChangePrio+0x9c>
 8004d5c:	e8bd 4070 	ldmia.w	sp!, {r4, r5, r6, lr}
 8004d60:	f7ff b914 	b.w	8003f8c <OS_RdyListInsertTail>
 8004d64:	2b01      	cmp	r3, #1
 8004d66:	d0e4      	beq.n	8004d32 <OS_TaskChangePrio+0x32>
 8004d68:	bd70      	pop	{r4, r5, r6, pc}
 8004d6a:	4620      	mov	r0, r4
 8004d6c:	f7fe ffd2 	bl	8003d14 <OS_PendListChangePrio>
 8004d70:	6aa3      	ldr	r3, [r4, #40]	@ 0x28
 8004d72:	691c      	ldr	r4, [r3, #16]
 8004d74:	42b5      	cmp	r5, r6
 8004d76:	f894 302f 	ldrb.w	r3, [r4, #47]	@ 0x2f
 8004d7a:	d313      	bcc.n	8004da4 <OS_TaskChangePrio+0xa4>
 8004d7c:	42b3      	cmp	r3, r6
 8004d7e:	d1df      	bne.n	8004d40 <OS_TaskChangePrio+0x40>
 8004d80:	4620      	mov	r0, r4
 8004d82:	f7ff fd05 	bl	8004790 <OS_MutexGrpPrioFindHighest>
 8004d86:	f894 5030 	ldrb.w	r5, [r4, #48]	@ 0x30
 8004d8a:	f894 302f 	ldrb.w	r3, [r4, #47]	@ 0x2f
 8004d8e:	4285      	cmp	r5, r0
 8004d90:	bf28      	it	cs
 8004d92:	4605      	movcs	r5, r0
 8004d94:	b2ed      	uxtb	r5, r5
 8004d96:	42ab      	cmp	r3, r5
 8004d98:	d1b5      	bne.n	8004d06 <OS_TaskChangePrio+0x6>
 8004d9a:	bd70      	pop	{r4, r5, r6, pc}
 8004d9c:	e8bd 4070 	ldmia.w	sp!, {r4, r5, r6, lr}
 8004da0:	f7ff b8d8 	b.w	8003f54 <OS_RdyListInsertHead>
 8004da4:	42ab      	cmp	r3, r5
 8004da6:	d8ae      	bhi.n	8004d06 <OS_TaskChangePrio+0x6>
 8004da8:	bd70      	pop	{r4, r5, r6, pc}
 8004daa:	bf00      	nop
 8004dac:	2000192c 	.word	0x2000192c

08004db0 <OSTaskDel.part.0>:
 8004db0:	e92d 41f0 	stmdb	sp!, {r4, r5, r6, r7, r8, lr}
 8004db4:	460e      	mov	r6, r1
 8004db6:	2800      	cmp	r0, #0
 8004db8:	f000 809f 	beq.w	8004efa <OSTaskDel.part.0+0x14a>
 8004dbc:	4604      	mov	r4, r0
 8004dbe:	2040      	movs	r0, #64	@ 0x40
 8004dc0:	f7fb fa06 	bl	80001d0 <CPU_SR_Save>
 8004dc4:	f894 302e 	ldrb.w	r3, [r4, #46]	@ 0x2e
 8004dc8:	4607      	mov	r7, r0
 8004dca:	2b07      	cmp	r3, #7
 8004dcc:	f200 80a2 	bhi.w	8004f14 <OSTaskDel.part.0+0x164>
 8004dd0:	e8df f003 	tbb	[pc, r3]
 8004dd4:	0404105f 	.word	0x0404105f
 8004dd8:	04041013 	.word	0x04041013
 8004ddc:	f894 202c 	ldrb.w	r2, [r4, #44]	@ 0x2c
 8004de0:	2a04      	cmp	r2, #4
 8004de2:	d065      	beq.n	8004eb0 <OSTaskDel.part.0+0x100>
 8004de4:	d95c      	bls.n	8004ea0 <OSTaskDel.part.0+0xf0>
 8004de6:	3a05      	subs	r2, #5
 8004de8:	2a01      	cmp	r2, #1
 8004dea:	d95b      	bls.n	8004ea4 <OSTaskDel.part.0+0xf4>
 8004dec:	f003 03fb 	and.w	r3, r3, #251	@ 0xfb
 8004df0:	2b03      	cmp	r3, #3
 8004df2:	d102      	bne.n	8004dfa <OSTaskDel.part.0+0x4a>
 8004df4:	4620      	mov	r0, r4
 8004df6:	f000 fa13 	bl	8005220 <OS_TickListRemove>
 8004dfa:	6b63      	ldr	r3, [r4, #52]	@ 0x34
 8004dfc:	b113      	cbz	r3, 8004e04 <OSTaskDel.part.0+0x54>
 8004dfe:	4620      	mov	r0, r4
 8004e00:	f7ff fcd6 	bl	80047b0 <OS_MutexGrpPostAll>
 8004e04:	f104 055c 	add.w	r5, r4, #92	@ 0x5c
 8004e08:	4628      	mov	r0, r5
 8004e0a:	f7ff fbab 	bl	8004564 <OS_MsgQFreeAll>
 8004e0e:	4620      	mov	r0, r4
 8004e10:	f7fe fce8 	bl	80037e4 <OSTaskDelHook>
 8004e14:	4a43      	ldr	r2, [pc, #268]	@ (8004f24 <OSTaskDel.part.0+0x174>)
 8004e16:	8813      	ldrh	r3, [r2, #0]
 8004e18:	4628      	mov	r0, r5
 8004e1a:	2500      	movs	r5, #0
 8004e1c:	3b01      	subs	r3, #1
 8004e1e:	4629      	mov	r1, r5
 8004e20:	e9c4 5501 	strd	r5, r5, [r4, #4]
 8004e24:	e9c4 5503 	strd	r5, r5, [r4, #12]
 8004e28:	e9c4 5505 	strd	r5, r5, [r4, #20]
 8004e2c:	6025      	str	r5, [r4, #0]
 8004e2e:	61e5      	str	r5, [r4, #28]
 8004e30:	6565      	str	r5, [r4, #84]	@ 0x54
 8004e32:	f8a4 5058 	strh.w	r5, [r4, #88]	@ 0x58
 8004e36:	8013      	strh	r3, [r2, #0]
 8004e38:	f7ff fbb2 	bl	80045a0 <OS_MsgQInit>
 8004e3c:	2320      	movs	r3, #32
 8004e3e:	f884 3030 	strb.w	r3, [r4, #48]	@ 0x30
 8004e42:	4b39      	ldr	r3, [pc, #228]	@ (8004f28 <OSTaskDel.part.0+0x178>)
 8004e44:	6765      	str	r5, [r4, #116]	@ 0x74
 8004e46:	e9c4 551a 	strd	r5, r5, [r4, #104]	@ 0x68
 8004e4a:	e9c4 5526 	strd	r5, r5, [r4, #152]	@ 0x98
 8004e4e:	e9c4 5528 	strd	r5, r5, [r4, #160]	@ 0xa0
 8004e52:	e9c4 5511 	strd	r5, r5, [r4, #68]	@ 0x44
 8004e56:	e9c4 5513 	strd	r5, r5, [r4, #76]	@ 0x4c
 8004e5a:	e9c4 5520 	strd	r5, r5, [r4, #128]	@ 0x80
 8004e5e:	e9c4 5522 	strd	r5, r5, [r4, #136]	@ 0x88
 8004e62:	e9c4 5508 	strd	r5, r5, [r4, #32]
 8004e66:	f8a4 507c 	strh.w	r5, [r4, #124]	@ 0x7c
 8004e6a:	67a5      	str	r5, [r4, #120]	@ 0x78
 8004e6c:	6725      	str	r5, [r4, #112]	@ 0x70
 8004e6e:	6425      	str	r5, [r4, #64]	@ 0x40
 8004e70:	63a5      	str	r5, [r4, #56]	@ 0x38
 8004e72:	f884 507e 	strb.w	r5, [r4, #126]	@ 0x7e
 8004e76:	87a5      	strh	r5, [r4, #60]	@ 0x3c
 8004e78:	f8c4 5090 	str.w	r5, [r4, #144]	@ 0x90
 8004e7c:	62a5      	str	r5, [r4, #40]	@ 0x28
 8004e7e:	6365      	str	r5, [r4, #52]	@ 0x34
 8004e80:	62e3      	str	r3, [r4, #44]	@ 0x2c
 8004e82:	4638      	mov	r0, r7
 8004e84:	8035      	strh	r5, [r6, #0]
 8004e86:	f7fb f9b1 	bl	80001ec <CPU_SR_Restore>
 8004e8a:	e8bd 41f0 	ldmia.w	sp!, {r4, r5, r6, r7, r8, lr}
 8004e8e:	f7fe be5f 	b.w	8003b50 <OSSched>
 8004e92:	4620      	mov	r0, r4
 8004e94:	f7ff f89a 	bl	8003fcc <OS_RdyListRemove>
 8004e98:	6b63      	ldr	r3, [r4, #52]	@ 0x34
 8004e9a:	2b00      	cmp	r3, #0
 8004e9c:	d1af      	bne.n	8004dfe <OSTaskDel.part.0+0x4e>
 8004e9e:	e7b1      	b.n	8004e04 <OSTaskDel.part.0+0x54>
 8004ea0:	2a01      	cmp	r2, #1
 8004ea2:	d1a3      	bne.n	8004dec <OSTaskDel.part.0+0x3c>
 8004ea4:	4620      	mov	r0, r4
 8004ea6:	f7fe ff6f 	bl	8003d88 <OS_PendListRemove>
 8004eaa:	f894 302e 	ldrb.w	r3, [r4, #46]	@ 0x2e
 8004eae:	e79d      	b.n	8004dec <OSTaskDel.part.0+0x3c>
 8004eb0:	6aa3      	ldr	r3, [r4, #40]	@ 0x28
 8004eb2:	691d      	ldr	r5, [r3, #16]
 8004eb4:	4620      	mov	r0, r4
 8004eb6:	f895 802f 	ldrb.w	r8, [r5, #47]	@ 0x2f
 8004eba:	f7fe ff65 	bl	8003d88 <OS_PendListRemove>
 8004ebe:	f895 302f 	ldrb.w	r3, [r5, #47]	@ 0x2f
 8004ec2:	f895 2030 	ldrb.w	r2, [r5, #48]	@ 0x30
 8004ec6:	4293      	cmp	r3, r2
 8004ec8:	d00f      	beq.n	8004eea <OSTaskDel.part.0+0x13a>
 8004eca:	f894 202f 	ldrb.w	r2, [r4, #47]	@ 0x2f
 8004ece:	429a      	cmp	r2, r3
 8004ed0:	d10b      	bne.n	8004eea <OSTaskDel.part.0+0x13a>
 8004ed2:	4628      	mov	r0, r5
 8004ed4:	f7ff fc5c 	bl	8004790 <OS_MutexGrpPrioFindHighest>
 8004ed8:	f895 8030 	ldrb.w	r8, [r5, #48]	@ 0x30
 8004edc:	f895 302f 	ldrb.w	r3, [r5, #47]	@ 0x2f
 8004ee0:	4580      	cmp	r8, r0
 8004ee2:	bf28      	it	cs
 8004ee4:	4680      	movcs	r8, r0
 8004ee6:	fa5f f888 	uxtb.w	r8, r8
 8004eea:	2200      	movs	r2, #0
 8004eec:	4598      	cmp	r8, r3
 8004eee:	f884 202c 	strb.w	r2, [r4, #44]	@ 0x2c
 8004ef2:	d10a      	bne.n	8004f0a <OSTaskDel.part.0+0x15a>
 8004ef4:	f894 302e 	ldrb.w	r3, [r4, #46]	@ 0x2e
 8004ef8:	e778      	b.n	8004dec <OSTaskDel.part.0+0x3c>
 8004efa:	2040      	movs	r0, #64	@ 0x40
 8004efc:	f7fb f968 	bl	80001d0 <CPU_SR_Save>
 8004f00:	4b0a      	ldr	r3, [pc, #40]	@ (8004f2c <OSTaskDel.part.0+0x17c>)
 8004f02:	681c      	ldr	r4, [r3, #0]
 8004f04:	f7fb f972 	bl	80001ec <CPU_SR_Restore>
 8004f08:	e759      	b.n	8004dbe <OSTaskDel.part.0+0xe>
 8004f0a:	4641      	mov	r1, r8
 8004f0c:	4628      	mov	r0, r5
 8004f0e:	f7ff fef7 	bl	8004d00 <OS_TaskChangePrio>
 8004f12:	e7ef      	b.n	8004ef4 <OSTaskDel.part.0+0x144>
 8004f14:	f7fb f96a 	bl	80001ec <CPU_SR_Restore>
 8004f18:	f646 632d 	movw	r3, #28205	@ 0x6e2d
 8004f1c:	8033      	strh	r3, [r6, #0]
 8004f1e:	e8bd 81f0 	ldmia.w	sp!, {r4, r5, r6, r7, r8, pc}
 8004f22:	bf00      	nop
 8004f24:	20001a16 	.word	0x20001a16
 8004f28:	20ff0000 	.word	0x20ff0000
 8004f2c:	2000192c 	.word	0x2000192c

08004f30 <OS_TaskReturn>:
 8004f30:	b500      	push	{lr}
 8004f32:	4b0b      	ldr	r3, [pc, #44]	@ (8004f60 <OS_TaskReturn+0x30>)
 8004f34:	b083      	sub	sp, #12
 8004f36:	6818      	ldr	r0, [r3, #0]
 8004f38:	f7fe fc5c 	bl	80037f4 <OSTaskReturnHook>
 8004f3c:	4b09      	ldr	r3, [pc, #36]	@ (8004f64 <OS_TaskReturn+0x34>)
 8004f3e:	7818      	ldrb	r0, [r3, #0]
 8004f40:	b918      	cbnz	r0, 8004f4a <OS_TaskReturn+0x1a>
 8004f42:	4b09      	ldr	r3, [pc, #36]	@ (8004f68 <OS_TaskReturn+0x38>)
 8004f44:	781b      	ldrb	r3, [r3, #0]
 8004f46:	2b01      	cmp	r3, #1
 8004f48:	d002      	beq.n	8004f50 <OS_TaskReturn+0x20>
 8004f4a:	b003      	add	sp, #12
 8004f4c:	f85d fb04 	ldr.w	pc, [sp], #4
 8004f50:	f10d 0106 	add.w	r1, sp, #6
 8004f54:	f7ff ff2c 	bl	8004db0 <OSTaskDel.part.0>
 8004f58:	b003      	add	sp, #12
 8004f5a:	f85d fb04 	ldr.w	pc, [sp], #4
 8004f5e:	bf00      	nop
 8004f60:	2000192c 	.word	0x2000192c
 8004f64:	20001bfe 	.word	0x20001bfe
 8004f68:	20001bfd 	.word	0x20001bfd

08004f6c <OS_TickInit>:
 8004f6c:	4903      	ldr	r1, [pc, #12]	@ (8004f7c <OS_TickInit+0x10>)
 8004f6e:	4a04      	ldr	r2, [pc, #16]	@ (8004f80 <OS_TickInit+0x14>)
 8004f70:	2300      	movs	r3, #0
 8004f72:	8003      	strh	r3, [r0, #0]
 8004f74:	600b      	str	r3, [r1, #0]
 8004f76:	6013      	str	r3, [r2, #0]
 8004f78:	4770      	bx	lr
 8004f7a:	bf00      	nop
 8004f7c:	20001a10 	.word	0x20001a10
 8004f80:	20001a0c 	.word	0x20001a0c

08004f84 <OS_TickUpdate>:
 8004f84:	e92d 4ff0 	stmdb	sp!, {r4, r5, r6, r7, r8, r9, sl, fp, lr}
 8004f88:	4605      	mov	r5, r0
 8004f8a:	b083      	sub	sp, #12
 8004f8c:	2040      	movs	r0, #64	@ 0x40
 8004f8e:	f7fb f91f 	bl	80001d0 <CPU_SR_Save>
 8004f92:	4a49      	ldr	r2, [pc, #292]	@ (80050b8 <OS_TickUpdate+0x134>)
 8004f94:	4e49      	ldr	r6, [pc, #292]	@ (80050bc <OS_TickUpdate+0x138>)
 8004f96:	6813      	ldr	r3, [r2, #0]
 8004f98:	6834      	ldr	r4, [r6, #0]
 8004f9a:	9001      	str	r0, [sp, #4]
 8004f9c:	442b      	add	r3, r5
 8004f9e:	6013      	str	r3, [r2, #0]
 8004fa0:	2c00      	cmp	r4, #0
 8004fa2:	d038      	beq.n	8005016 <OS_TickUpdate+0x92>
 8004fa4:	6c63      	ldr	r3, [r4, #68]	@ 0x44
 8004fa6:	429d      	cmp	r5, r3
 8004fa8:	d333      	bcc.n	8005012 <OS_TickUpdate+0x8e>
 8004faa:	1aed      	subs	r5, r5, r3
 8004fac:	f894 302e 	ldrb.w	r3, [r4, #46]	@ 0x2e
 8004fb0:	2700      	movs	r7, #0
 8004fb2:	2b01      	cmp	r3, #1
 8004fb4:	6467      	str	r7, [r4, #68]	@ 0x44
 8004fb6:	f04f 0804 	mov.w	r8, #4
 8004fba:	f44f 7940 	mov.w	r9, #768	@ 0x300
 8004fbe:	d022      	beq.n	8005006 <OS_TickUpdate+0x82>
 8004fc0:	2b05      	cmp	r3, #5
 8004fc2:	d02e      	beq.n	8005022 <OS_TickUpdate+0x9e>
 8004fc4:	f894 a02c 	ldrb.w	sl, [r4, #44]	@ 0x2c
 8004fc8:	f1ba 0f04 	cmp.w	sl, #4
 8004fcc:	d02c      	beq.n	8005028 <OS_TickUpdate+0xa4>
 8004fce:	6567      	str	r7, [r4, #84]	@ 0x54
 8004fd0:	f8a4 7058 	strh.w	r7, [r4, #88]	@ 0x58
 8004fd4:	4620      	mov	r0, r4
 8004fd6:	f7fe fed7 	bl	8003d88 <OS_PendListRemove>
 8004fda:	f894 302e 	ldrb.w	r3, [r4, #46]	@ 0x2e
 8004fde:	2b03      	cmp	r3, #3
 8004fe0:	d05d      	beq.n	800509e <OS_TickUpdate+0x11a>
 8004fe2:	2b07      	cmp	r3, #7
 8004fe4:	d050      	beq.n	8005088 <OS_TickUpdate+0x104>
 8004fe6:	f44f 7340 	mov.w	r3, #768	@ 0x300
 8004fea:	85a3      	strh	r3, [r4, #44]	@ 0x2c
 8004fec:	6964      	ldr	r4, [r4, #20]
 8004fee:	6034      	str	r4, [r6, #0]
 8004ff0:	b18c      	cbz	r4, 8005016 <OS_TickUpdate+0x92>
 8004ff2:	6c63      	ldr	r3, [r4, #68]	@ 0x44
 8004ff4:	61a7      	str	r7, [r4, #24]
 8004ff6:	42ab      	cmp	r3, r5
 8004ff8:	d80b      	bhi.n	8005012 <OS_TickUpdate+0x8e>
 8004ffa:	1aed      	subs	r5, r5, r3
 8004ffc:	f894 302e 	ldrb.w	r3, [r4, #46]	@ 0x2e
 8005000:	6467      	str	r7, [r4, #68]	@ 0x44
 8005002:	2b01      	cmp	r3, #1
 8005004:	d1dc      	bne.n	8004fc0 <OS_TickUpdate+0x3c>
 8005006:	f884 702e 	strb.w	r7, [r4, #46]	@ 0x2e
 800500a:	4620      	mov	r0, r4
 800500c:	f7fe ff6a 	bl	8003ee4 <OS_RdyListInsert>
 8005010:	e7ec      	b.n	8004fec <OS_TickUpdate+0x68>
 8005012:	1b5b      	subs	r3, r3, r5
 8005014:	6463      	str	r3, [r4, #68]	@ 0x44
 8005016:	9801      	ldr	r0, [sp, #4]
 8005018:	b003      	add	sp, #12
 800501a:	e8bd 4ff0 	ldmia.w	sp!, {r4, r5, r6, r7, r8, r9, sl, fp, lr}
 800501e:	f7fb b8e5 	b.w	80001ec <CPU_SR_Restore>
 8005022:	f884 802e 	strb.w	r8, [r4, #46]	@ 0x2e
 8005026:	e7e1      	b.n	8004fec <OS_TickUpdate+0x68>
 8005028:	6aa2      	ldr	r2, [r4, #40]	@ 0x28
 800502a:	4620      	mov	r0, r4
 800502c:	f8d2 b010 	ldr.w	fp, [r2, #16]
 8005030:	6567      	str	r7, [r4, #84]	@ 0x54
 8005032:	f8a4 7058 	strh.w	r7, [r4, #88]	@ 0x58
 8005036:	f7fe fea7 	bl	8003d88 <OS_PendListRemove>
 800503a:	f894 202e 	ldrb.w	r2, [r4, #46]	@ 0x2e
 800503e:	2a03      	cmp	r2, #3
 8005040:	d027      	beq.n	8005092 <OS_TickUpdate+0x10e>
 8005042:	2a07      	cmp	r2, #7
 8005044:	d034      	beq.n	80050b0 <OS_TickUpdate+0x12c>
 8005046:	f44f 7340 	mov.w	r3, #768	@ 0x300
 800504a:	85a3      	strh	r3, [r4, #44]	@ 0x2c
 800504c:	f1bb 0f00 	cmp.w	fp, #0
 8005050:	d0cc      	beq.n	8004fec <OS_TickUpdate+0x68>
 8005052:	f89b 302f 	ldrb.w	r3, [fp, #47]	@ 0x2f
 8005056:	f89b 2030 	ldrb.w	r2, [fp, #48]	@ 0x30
 800505a:	429a      	cmp	r2, r3
 800505c:	d0c6      	beq.n	8004fec <OS_TickUpdate+0x68>
 800505e:	f894 202f 	ldrb.w	r2, [r4, #47]	@ 0x2f
 8005062:	429a      	cmp	r2, r3
 8005064:	d1c2      	bne.n	8004fec <OS_TickUpdate+0x68>
 8005066:	4658      	mov	r0, fp
 8005068:	f7ff fb92 	bl	8004790 <OS_MutexGrpPrioFindHighest>
 800506c:	f89b 1030 	ldrb.w	r1, [fp, #48]	@ 0x30
 8005070:	f89b 302f 	ldrb.w	r3, [fp, #47]	@ 0x2f
 8005074:	4281      	cmp	r1, r0
 8005076:	bf28      	it	cs
 8005078:	4601      	movcs	r1, r0
 800507a:	b2c9      	uxtb	r1, r1
 800507c:	428b      	cmp	r3, r1
 800507e:	d0b5      	beq.n	8004fec <OS_TickUpdate+0x68>
 8005080:	4658      	mov	r0, fp
 8005082:	f7ff fe3d 	bl	8004d00 <OS_TaskChangePrio>
 8005086:	e7b1      	b.n	8004fec <OS_TickUpdate+0x68>
 8005088:	f884 802e 	strb.w	r8, [r4, #46]	@ 0x2e
 800508c:	f8a4 902c 	strh.w	r9, [r4, #44]	@ 0x2c
 8005090:	e7ac      	b.n	8004fec <OS_TickUpdate+0x68>
 8005092:	4620      	mov	r0, r4
 8005094:	f7fe ff26 	bl	8003ee4 <OS_RdyListInsert>
 8005098:	f884 702e 	strb.w	r7, [r4, #46]	@ 0x2e
 800509c:	e7d3      	b.n	8005046 <OS_TickUpdate+0xc2>
 800509e:	4620      	mov	r0, r4
 80050a0:	f7fe ff20 	bl	8003ee4 <OS_RdyListInsert>
 80050a4:	f44f 7340 	mov.w	r3, #768	@ 0x300
 80050a8:	f884 702e 	strb.w	r7, [r4, #46]	@ 0x2e
 80050ac:	85a3      	strh	r3, [r4, #44]	@ 0x2c
 80050ae:	e79d      	b.n	8004fec <OS_TickUpdate+0x68>
 80050b0:	f884 a02e 	strb.w	sl, [r4, #46]	@ 0x2e
 80050b4:	e7c7      	b.n	8005046 <OS_TickUpdate+0xc2>
 80050b6:	bf00      	nop
 80050b8:	20001a10 	.word	0x20001a10
 80050bc:	20001a0c 	.word	0x20001a0c

080050c0 <OS_TickListInsert>:
 80050c0:	b4f0      	push	{r4, r5, r6, r7}
 80050c2:	4c22      	ldr	r4, [pc, #136]	@ (800514c <OS_TickListInsert+0x8c>)
 80050c4:	6825      	ldr	r5, [r4, #0]
 80050c6:	4413      	add	r3, r2
 80050c8:	186c      	adds	r4, r5, r1
 80050ca:	1b1c      	subs	r4, r3, r4
 80050cc:	d02e      	beq.n	800512c <OS_TickListInsert+0x6c>
 80050ce:	4f20      	ldr	r7, [pc, #128]	@ (8005150 <OS_TickListInsert+0x90>)
 80050d0:	683a      	ldr	r2, [r7, #0]
 80050d2:	2a00      	cmp	r2, #0
 80050d4:	d035      	beq.n	8005142 <OS_TickListInsert+0x82>
 80050d6:	6c56      	ldr	r6, [r2, #68]	@ 0x44
 80050d8:	eba6 0c01 	sub.w	ip, r6, r1
 80050dc:	4564      	cmp	r4, ip
 80050de:	d317      	bcc.n	8005110 <OS_TickListInsert+0x50>
 80050e0:	6953      	ldr	r3, [r2, #20]
 80050e2:	1b89      	subs	r1, r1, r6
 80050e4:	4421      	add	r1, r4
 80050e6:	b923      	cbnz	r3, 80050f2 <OS_TickListInsert+0x32>
 80050e8:	e024      	b.n	8005134 <OS_TickListInsert+0x74>
 80050ea:	695c      	ldr	r4, [r3, #20]
 80050ec:	1a89      	subs	r1, r1, r2
 80050ee:	b314      	cbz	r4, 8005136 <OS_TickListInsert+0x76>
 80050f0:	4623      	mov	r3, r4
 80050f2:	6c5a      	ldr	r2, [r3, #68]	@ 0x44
 80050f4:	428a      	cmp	r2, r1
 80050f6:	d9f8      	bls.n	80050ea <OS_TickListInsert+0x2a>
 80050f8:	699c      	ldr	r4, [r3, #24]
 80050fa:	6441      	str	r1, [r0, #68]	@ 0x44
 80050fc:	6c5a      	ldr	r2, [r3, #68]	@ 0x44
 80050fe:	6184      	str	r4, [r0, #24]
 8005100:	1a52      	subs	r2, r2, r1
 8005102:	6143      	str	r3, [r0, #20]
 8005104:	645a      	str	r2, [r3, #68]	@ 0x44
 8005106:	6198      	str	r0, [r3, #24]
 8005108:	6160      	str	r0, [r4, #20]
 800510a:	2001      	movs	r0, #1
 800510c:	bcf0      	pop	{r4, r5, r6, r7}
 800510e:	4770      	bx	lr
 8005110:	f8d2 c018 	ldr.w	ip, [r2, #24]
 8005114:	f1bc 0f00 	cmp.w	ip, #0
 8005118:	d1e2      	bne.n	80050e0 <OS_TickListInsert+0x20>
 800511a:	19a9      	adds	r1, r5, r6
 800511c:	1acb      	subs	r3, r1, r3
 800511e:	6444      	str	r4, [r0, #68]	@ 0x44
 8005120:	6038      	str	r0, [r7, #0]
 8005122:	6453      	str	r3, [r2, #68]	@ 0x44
 8005124:	e9c0 2c05 	strd	r2, ip, [r0, #20]
 8005128:	6190      	str	r0, [r2, #24]
 800512a:	e7ee      	b.n	800510a <OS_TickListInsert+0x4a>
 800512c:	6444      	str	r4, [r0, #68]	@ 0x44
 800512e:	4620      	mov	r0, r4
 8005130:	bcf0      	pop	{r4, r5, r6, r7}
 8005132:	4770      	bx	lr
 8005134:	4613      	mov	r3, r2
 8005136:	2200      	movs	r2, #0
 8005138:	e9c0 2305 	strd	r2, r3, [r0, #20]
 800513c:	6441      	str	r1, [r0, #68]	@ 0x44
 800513e:	6158      	str	r0, [r3, #20]
 8005140:	e7e3      	b.n	800510a <OS_TickListInsert+0x4a>
 8005142:	e9c0 2205 	strd	r2, r2, [r0, #20]
 8005146:	6444      	str	r4, [r0, #68]	@ 0x44
 8005148:	6038      	str	r0, [r7, #0]
 800514a:	e7de      	b.n	800510a <OS_TickListInsert+0x4a>
 800514c:	20001a10 	.word	0x20001a10
 8005150:	20001a0c 	.word	0x20001a0c

08005154 <OS_TickListInsertDly>:
 8005154:	2a04      	cmp	r2, #4
 8005156:	b4f0      	push	{r4, r5, r6, r7}
 8005158:	d045      	beq.n	80051e6 <OS_TickListInsertDly+0x92>
 800515a:	2a08      	cmp	r2, #8
 800515c:	d030      	beq.n	80051c0 <OS_TickListInsertDly+0x6c>
 800515e:	4a2e      	ldr	r2, [pc, #184]	@ (8005218 <OS_TickListInsertDly+0xc4>)
 8005160:	6814      	ldr	r4, [r2, #0]
 8005162:	4421      	add	r1, r4
 8005164:	1b0a      	subs	r2, r1, r4
 8005166:	d027      	beq.n	80051b8 <OS_TickListInsertDly+0x64>
 8005168:	4f2c      	ldr	r7, [pc, #176]	@ (800521c <OS_TickListInsertDly+0xc8>)
 800516a:	683d      	ldr	r5, [r7, #0]
 800516c:	2d00      	cmp	r5, #0
 800516e:	d03d      	beq.n	80051ec <OS_TickListInsertDly+0x98>
 8005170:	6c6e      	ldr	r6, [r5, #68]	@ 0x44
 8005172:	42b2      	cmp	r2, r6
 8005174:	d204      	bcs.n	8005180 <OS_TickListInsertDly+0x2c>
 8005176:	f8d5 c018 	ldr.w	ip, [r5, #24]
 800517a:	f1bc 0f00 	cmp.w	ip, #0
 800517e:	d041      	beq.n	8005204 <OS_TickListInsertDly+0xb0>
 8005180:	6969      	ldr	r1, [r5, #20]
 8005182:	1b92      	subs	r2, r2, r6
 8005184:	b929      	cbnz	r1, 8005192 <OS_TickListInsertDly+0x3e>
 8005186:	e036      	b.n	80051f6 <OS_TickListInsertDly+0xa2>
 8005188:	694d      	ldr	r5, [r1, #20]
 800518a:	1b12      	subs	r2, r2, r4
 800518c:	2d00      	cmp	r5, #0
 800518e:	d033      	beq.n	80051f8 <OS_TickListInsertDly+0xa4>
 8005190:	4629      	mov	r1, r5
 8005192:	6c4c      	ldr	r4, [r1, #68]	@ 0x44
 8005194:	4294      	cmp	r4, r2
 8005196:	d9f7      	bls.n	8005188 <OS_TickListInsertDly+0x34>
 8005198:	698d      	ldr	r5, [r1, #24]
 800519a:	6442      	str	r2, [r0, #68]	@ 0x44
 800519c:	6c4c      	ldr	r4, [r1, #68]	@ 0x44
 800519e:	1aa4      	subs	r4, r4, r2
 80051a0:	e9c0 1505 	strd	r1, r5, [r0, #20]
 80051a4:	6188      	str	r0, [r1, #24]
 80051a6:	644c      	str	r4, [r1, #68]	@ 0x44
 80051a8:	6168      	str	r0, [r5, #20]
 80051aa:	2201      	movs	r2, #1
 80051ac:	f880 202e 	strb.w	r2, [r0, #46]	@ 0x2e
 80051b0:	2200      	movs	r2, #0
 80051b2:	bcf0      	pop	{r4, r5, r6, r7}
 80051b4:	801a      	strh	r2, [r3, #0]
 80051b6:	4770      	bx	lr
 80051b8:	6442      	str	r2, [r0, #68]	@ 0x44
 80051ba:	f247 227e 	movw	r2, #29310	@ 0x727e
 80051be:	e7f8      	b.n	80051b2 <OS_TickListInsertDly+0x5e>
 80051c0:	2900      	cmp	r1, #0
 80051c2:	d0fa      	beq.n	80051ba <OS_TickListInsertDly+0x66>
 80051c4:	4c14      	ldr	r4, [pc, #80]	@ (8005218 <OS_TickListInsertDly+0xc4>)
 80051c6:	6c82      	ldr	r2, [r0, #72]	@ 0x48
 80051c8:	6824      	ldr	r4, [r4, #0]
 80051ca:	1aa5      	subs	r5, r4, r2
 80051cc:	42a9      	cmp	r1, r5
 80051ce:	d807      	bhi.n	80051e0 <OS_TickListInsertDly+0x8c>
 80051d0:	fbb5 f6f1 	udiv	r6, r5, r1
 80051d4:	fb01 f606 	mul.w	r6, r1, r6
 80051d8:	4432      	add	r2, r6
 80051da:	42b5      	cmp	r5, r6
 80051dc:	bf18      	it	ne
 80051de:	1852      	addne	r2, r2, r1
 80051e0:	4411      	add	r1, r2
 80051e2:	6481      	str	r1, [r0, #72]	@ 0x48
 80051e4:	e7be      	b.n	8005164 <OS_TickListInsertDly+0x10>
 80051e6:	4a0c      	ldr	r2, [pc, #48]	@ (8005218 <OS_TickListInsertDly+0xc4>)
 80051e8:	6814      	ldr	r4, [r2, #0]
 80051ea:	e7bb      	b.n	8005164 <OS_TickListInsertDly+0x10>
 80051ec:	e9c0 5505 	strd	r5, r5, [r0, #20]
 80051f0:	6442      	str	r2, [r0, #68]	@ 0x44
 80051f2:	6038      	str	r0, [r7, #0]
 80051f4:	e7d9      	b.n	80051aa <OS_TickListInsertDly+0x56>
 80051f6:	4629      	mov	r1, r5
 80051f8:	2400      	movs	r4, #0
 80051fa:	e9c0 4105 	strd	r4, r1, [r0, #20]
 80051fe:	6442      	str	r2, [r0, #68]	@ 0x44
 8005200:	6148      	str	r0, [r1, #20]
 8005202:	e7d2      	b.n	80051aa <OS_TickListInsertDly+0x56>
 8005204:	4426      	add	r6, r4
 8005206:	1a71      	subs	r1, r6, r1
 8005208:	6442      	str	r2, [r0, #68]	@ 0x44
 800520a:	6038      	str	r0, [r7, #0]
 800520c:	6469      	str	r1, [r5, #68]	@ 0x44
 800520e:	e9c0 5c05 	strd	r5, ip, [r0, #20]
 8005212:	61a8      	str	r0, [r5, #24]
 8005214:	e7c9      	b.n	80051aa <OS_TickListInsertDly+0x56>
 8005216:	bf00      	nop
 8005218:	20001a10 	.word	0x20001a10
 800521c:	20001a0c 	.word	0x20001a0c

08005220 <OS_TickListRemove>:
 8005220:	e9d0 3205 	ldrd	r3, r2, [r0, #20]
 8005224:	b410      	push	{r4}
 8005226:	b172      	cbz	r2, 8005246 <OS_TickListRemove+0x26>
 8005228:	6153      	str	r3, [r2, #20]
 800522a:	b123      	cbz	r3, 8005236 <OS_TickListRemove+0x16>
 800522c:	6c44      	ldr	r4, [r0, #68]	@ 0x44
 800522e:	6c59      	ldr	r1, [r3, #68]	@ 0x44
 8005230:	619a      	str	r2, [r3, #24]
 8005232:	4421      	add	r1, r4
 8005234:	6459      	str	r1, [r3, #68]	@ 0x44
 8005236:	2300      	movs	r3, #0
 8005238:	e9c0 3305 	strd	r3, r3, [r0, #20]
 800523c:	2300      	movs	r3, #0
 800523e:	f85d 4b04 	ldr.w	r4, [sp], #4
 8005242:	6443      	str	r3, [r0, #68]	@ 0x44
 8005244:	4770      	bx	lr
 8005246:	b163      	cbz	r3, 8005262 <OS_TickListRemove+0x42>
 8005248:	6c59      	ldr	r1, [r3, #68]	@ 0x44
 800524a:	6c44      	ldr	r4, [r0, #68]	@ 0x44
 800524c:	619a      	str	r2, [r3, #24]
 800524e:	4421      	add	r1, r4
 8005250:	4c05      	ldr	r4, [pc, #20]	@ (8005268 <OS_TickListRemove+0x48>)
 8005252:	6459      	str	r1, [r3, #68]	@ 0x44
 8005254:	6023      	str	r3, [r4, #0]
 8005256:	2300      	movs	r3, #0
 8005258:	f85d 4b04 	ldr.w	r4, [sp], #4
 800525c:	6142      	str	r2, [r0, #20]
 800525e:	6443      	str	r3, [r0, #68]	@ 0x44
 8005260:	4770      	bx	lr
 8005262:	4a01      	ldr	r2, [pc, #4]	@ (8005268 <OS_TickListRemove+0x48>)
 8005264:	6013      	str	r3, [r2, #0]
 8005266:	e7e9      	b.n	800523c <OS_TickListRemove+0x1c>
 8005268:	20001a0c 	.word	0x20001a0c

0800526c <OSTimeDly>:
 800526c:	b570      	push	{r4, r5, r6, lr}
 800526e:	4b24      	ldr	r3, [pc, #144]	@ (8005300 <OSTimeDly+0x94>)
 8005270:	781b      	ldrb	r3, [r3, #0]
 8005272:	b082      	sub	sp, #8
 8005274:	4614      	mov	r4, r2
 8005276:	b9bb      	cbnz	r3, 80052a8 <OSTimeDly+0x3c>
 8005278:	4b22      	ldr	r3, [pc, #136]	@ (8005304 <OSTimeDly+0x98>)
 800527a:	781b      	ldrb	r3, [r3, #0]
 800527c:	2b01      	cmp	r3, #1
 800527e:	d004      	beq.n	800528a <OSTimeDly+0x1e>
 8005280:	f645 6389 	movw	r3, #24201	@ 0x5e89
 8005284:	8013      	strh	r3, [r2, #0]
 8005286:	b002      	add	sp, #8
 8005288:	bd70      	pop	{r4, r5, r6, pc}
 800528a:	4b1f      	ldr	r3, [pc, #124]	@ (8005308 <OSTimeDly+0x9c>)
 800528c:	781b      	ldrb	r3, [r3, #0]
 800528e:	b983      	cbnz	r3, 80052b2 <OSTimeDly+0x46>
 8005290:	2908      	cmp	r1, #8
 8005292:	d804      	bhi.n	800529e <OSTimeDly+0x32>
 8005294:	f240 1315 	movw	r3, #277	@ 0x115
 8005298:	40cb      	lsrs	r3, r1
 800529a:	07db      	lsls	r3, r3, #31
 800529c:	d40e      	bmi.n	80052bc <OSTimeDly+0x50>
 800529e:	f645 6325 	movw	r3, #24101	@ 0x5e25
 80052a2:	8023      	strh	r3, [r4, #0]
 80052a4:	b002      	add	sp, #8
 80052a6:	bd70      	pop	{r4, r5, r6, pc}
 80052a8:	f247 2375 	movw	r3, #29301	@ 0x7275
 80052ac:	8013      	strh	r3, [r2, #0]
 80052ae:	b002      	add	sp, #8
 80052b0:	bd70      	pop	{r4, r5, r6, pc}
 80052b2:	f646 5363 	movw	r3, #28003	@ 0x6d63
 80052b6:	8013      	strh	r3, [r2, #0]
 80052b8:	b002      	add	sp, #8
 80052ba:	bd70      	pop	{r4, r5, r6, pc}
 80052bc:	4605      	mov	r5, r0
 80052be:	2040      	movs	r0, #64	@ 0x40
 80052c0:	9101      	str	r1, [sp, #4]
 80052c2:	f7fa ff85 	bl	80001d0 <CPU_SR_Save>
 80052c6:	4e11      	ldr	r6, [pc, #68]	@ (800530c <OSTimeDly+0xa0>)
 80052c8:	9901      	ldr	r1, [sp, #4]
 80052ca:	4623      	mov	r3, r4
 80052cc:	460a      	mov	r2, r1
 80052ce:	4629      	mov	r1, r5
 80052d0:	4605      	mov	r5, r0
 80052d2:	6830      	ldr	r0, [r6, #0]
 80052d4:	f7ff ff3e 	bl	8005154 <OS_TickListInsertDly>
 80052d8:	8823      	ldrh	r3, [r4, #0]
 80052da:	b953      	cbnz	r3, 80052f2 <OSTimeDly+0x86>
 80052dc:	6830      	ldr	r0, [r6, #0]
 80052de:	f7fe fe75 	bl	8003fcc <OS_RdyListRemove>
 80052e2:	4628      	mov	r0, r5
 80052e4:	f7fa ff82 	bl	80001ec <CPU_SR_Restore>
 80052e8:	b002      	add	sp, #8
 80052ea:	e8bd 4070 	ldmia.w	sp!, {r4, r5, r6, lr}
 80052ee:	f7fe bc2f 	b.w	8003b50 <OSSched>
 80052f2:	4628      	mov	r0, r5
 80052f4:	b002      	add	sp, #8
 80052f6:	e8bd 4070 	ldmia.w	sp!, {r4, r5, r6, lr}
 80052fa:	f7fa bf77 	b.w	80001ec <CPU_SR_Restore>
 80052fe:	bf00      	nop
 8005300:	20001bfe 	.word	0x20001bfe
 8005304:	20001bfd 	.word	0x20001bfd
 8005308:	20001ae0 	.word	0x20001ae0
 800530c:	2000192c 	.word	0x2000192c

08005310 <OSTimeDlyHMSM>:
 8005310:	b5f8      	push	{r3, r4, r5, r6, r7, lr}
 8005312:	4c3f      	ldr	r4, [pc, #252]	@ (8005410 <OSTimeDlyHMSM+0x100>)
 8005314:	f8bd c018 	ldrh.w	ip, [sp, #24]
 8005318:	7824      	ldrb	r4, [r4, #0]
 800531a:	9d07      	ldr	r5, [sp, #28]
 800531c:	b9ac      	cbnz	r4, 800534a <OSTimeDlyHMSM+0x3a>
 800531e:	4c3d      	ldr	r4, [pc, #244]	@ (8005414 <OSTimeDlyHMSM+0x104>)
 8005320:	7824      	ldrb	r4, [r4, #0]
 8005322:	2c01      	cmp	r4, #1
 8005324:	d10d      	bne.n	8005342 <OSTimeDlyHMSM+0x32>
 8005326:	4c3c      	ldr	r4, [pc, #240]	@ (8005418 <OSTimeDlyHMSM+0x108>)
 8005328:	7824      	ldrb	r4, [r4, #0]
 800532a:	bb34      	cbnz	r4, 800537a <OSTimeDlyHMSM+0x6a>
 800532c:	f00c 060e 	and.w	r6, ip, #14
 8005330:	f240 1415 	movw	r4, #277	@ 0x115
 8005334:	40f4      	lsrs	r4, r6
 8005336:	07e4      	lsls	r4, r4, #31
 8005338:	d40b      	bmi.n	8005352 <OSTimeDlyHMSM+0x42>
 800533a:	f645 6325 	movw	r3, #24101	@ 0x5e25
 800533e:	802b      	strh	r3, [r5, #0]
 8005340:	bdf8      	pop	{r3, r4, r5, r6, r7, pc}
 8005342:	f645 6389 	movw	r3, #24201	@ 0x5e89
 8005346:	802b      	strh	r3, [r5, #0]
 8005348:	bdf8      	pop	{r3, r4, r5, r6, r7, pc}
 800534a:	f247 2375 	movw	r3, #29301	@ 0x7275
 800534e:	802b      	strh	r3, [r5, #0]
 8005350:	bdf8      	pop	{r3, r4, r5, r6, r7, pc}
 8005352:	f02c 041e 	bic.w	r4, ip, #30
 8005356:	2c00      	cmp	r4, #0
 8005358:	d1ef      	bne.n	800533a <OSTimeDlyHMSM+0x2a>
 800535a:	f01c 0f10 	tst.w	ip, #16
 800535e:	d110      	bne.n	8005382 <OSTimeDlyHMSM+0x72>
 8005360:	f5b3 7f7a 	cmp.w	r3, #1000	@ 0x3e8
 8005364:	d246      	bcs.n	80053f4 <OSTimeDlyHMSM+0xe4>
 8005366:	2a3b      	cmp	r2, #59	@ 0x3b
 8005368:	d848      	bhi.n	80053fc <OSTimeDlyHMSM+0xec>
 800536a:	293b      	cmp	r1, #59	@ 0x3b
 800536c:	d83e      	bhi.n	80053ec <OSTimeDlyHMSM+0xdc>
 800536e:	2863      	cmp	r0, #99	@ 0x63
 8005370:	d90e      	bls.n	8005390 <OSTimeDlyHMSM+0x80>
 8005372:	f247 2378 	movw	r3, #29304	@ 0x7278
 8005376:	802b      	strh	r3, [r5, #0]
 8005378:	bdf8      	pop	{r3, r4, r5, r6, r7, pc}
 800537a:	f646 5363 	movw	r3, #28003	@ 0x6d63
 800537e:	802b      	strh	r3, [r5, #0]
 8005380:	bdf8      	pop	{r3, r4, r5, r6, r7, pc}
 8005382:	f242 740f 	movw	r4, #9999	@ 0x270f
 8005386:	42a1      	cmp	r1, r4
 8005388:	d830      	bhi.n	80053ec <OSTimeDlyHMSM+0xdc>
 800538a:	f5b0 7f7a 	cmp.w	r0, #1000	@ 0x3e8
 800538e:	d2f0      	bcs.n	8005372 <OSTimeDlyHMSM+0x62>
 8005390:	ebc1 1c01 	rsb	ip, r1, r1, lsl #4
 8005394:	4921      	ldr	r1, [pc, #132]	@ (800541c <OSTimeDlyHMSM+0x10c>)
 8005396:	4f22      	ldr	r7, [pc, #136]	@ (8005420 <OSTimeDlyHMSM+0x110>)
 8005398:	6809      	ldr	r1, [r1, #0]
 800539a:	f44f 74fa 	mov.w	r4, #500	@ 0x1f4
 800539e:	fbb4 f4f1 	udiv	r4, r4, r1
 80053a2:	441c      	add	r4, r3
 80053a4:	fb01 f404 	mul.w	r4, r1, r4
 80053a8:	f44f 6361 	mov.w	r3, #3600	@ 0xe10
 80053ac:	fb03 2000 	mla	r0, r3, r0, r2
 80053b0:	fba7 7404 	umull	r7, r4, r7, r4
 80053b4:	eb00 008c 	add.w	r0, r0, ip, lsl #2
 80053b8:	09a4      	lsrs	r4, r4, #6
 80053ba:	fb01 4400 	mla	r4, r1, r0, r4
 80053be:	2040      	movs	r0, #64	@ 0x40
 80053c0:	f7fa ff06 	bl	80001d0 <CPU_SR_Save>
 80053c4:	4f17      	ldr	r7, [pc, #92]	@ (8005424 <OSTimeDlyHMSM+0x114>)
 80053c6:	4621      	mov	r1, r4
 80053c8:	462b      	mov	r3, r5
 80053ca:	4632      	mov	r2, r6
 80053cc:	4604      	mov	r4, r0
 80053ce:	6838      	ldr	r0, [r7, #0]
 80053d0:	f7ff fec0 	bl	8005154 <OS_TickListInsertDly>
 80053d4:	882b      	ldrh	r3, [r5, #0]
 80053d6:	b9ab      	cbnz	r3, 8005404 <OSTimeDlyHMSM+0xf4>
 80053d8:	6838      	ldr	r0, [r7, #0]
 80053da:	f7fe fdf7 	bl	8003fcc <OS_RdyListRemove>
 80053de:	4620      	mov	r0, r4
 80053e0:	f7fa ff04 	bl	80001ec <CPU_SR_Restore>
 80053e4:	e8bd 40f8 	ldmia.w	sp!, {r3, r4, r5, r6, r7, lr}
 80053e8:	f7fe bbb2 	b.w	8003b50 <OSSched>
 80053ec:	f247 2379 	movw	r3, #29305	@ 0x7279
 80053f0:	802b      	strh	r3, [r5, #0]
 80053f2:	bdf8      	pop	{r3, r4, r5, r6, r7, pc}
 80053f4:	f247 237b 	movw	r3, #29307	@ 0x727b
 80053f8:	802b      	strh	r3, [r5, #0]
 80053fa:	bdf8      	pop	{r3, r4, r5, r6, r7, pc}
 80053fc:	f247 237a 	movw	r3, #29306	@ 0x727a
 8005400:	802b      	strh	r3, [r5, #0]
 8005402:	bdf8      	pop	{r3, r4, r5, r6, r7, pc}
 8005404:	4620      	mov	r0, r4
 8005406:	e8bd 40f8 	ldmia.w	sp!, {r3, r4, r5, r6, r7, lr}
 800540a:	f7fa beef 	b.w	80001ec <CPU_SR_Restore>
 800540e:	bf00      	nop
 8005410:	20001bfe 	.word	0x20001bfe
 8005414:	20001bfd 	.word	0x20001bfd
 8005418:	20001ae0 	.word	0x20001ae0
 800541c:	080059e4 	.word	0x080059e4
 8005420:	10624dd3 	.word	0x10624dd3
 8005424:	2000192c 	.word	0x2000192c

08005428 <OSTimeTick>:
 8005428:	b510      	push	{r4, lr}
 800542a:	4b09      	ldr	r3, [pc, #36]	@ (8005450 <OSTimeTick+0x28>)
 800542c:	781c      	ldrb	r4, [r3, #0]
 800542e:	2c01      	cmp	r4, #1
 8005430:	d000      	beq.n	8005434 <OSTimeTick+0xc>
 8005432:	bd10      	pop	{r4, pc}
 8005434:	f7fe fa48 	bl	80038c8 <OSTimeTickHook>
 8005438:	4a06      	ldr	r2, [pc, #24]	@ (8005454 <OSTimeTick+0x2c>)
 800543a:	4b07      	ldr	r3, [pc, #28]	@ (8005458 <OSTimeTick+0x30>)
 800543c:	7810      	ldrb	r0, [r2, #0]
 800543e:	eb03 00c0 	add.w	r0, r3, r0, lsl #3
 8005442:	f7fe fded 	bl	8004020 <OS_SchedRoundRobin>
 8005446:	4620      	mov	r0, r4
 8005448:	e8bd 4010 	ldmia.w	sp!, {r4, lr}
 800544c:	f7ff bd9a 	b.w	8004f84 <OS_TickUpdate>
 8005450:	20001bfd 	.word	0x20001bfd
 8005454:	20001be9 	.word	0x20001be9
 8005458:	20001ae4 	.word	0x20001ae4

0800545c <OS_TmrInit>:
 800545c:	b570      	push	{r4, r5, r6, lr}
 800545e:	4604      	mov	r4, r0
 8005460:	4828      	ldr	r0, [pc, #160]	@ (8005504 <OS_TmrInit+0xa8>)
 8005462:	4a29      	ldr	r2, [pc, #164]	@ (8005508 <OS_TmrInit+0xac>)
 8005464:	4b29      	ldr	r3, [pc, #164]	@ (800550c <OS_TmrInit+0xb0>)
 8005466:	4e2a      	ldr	r6, [pc, #168]	@ (8005510 <OS_TmrInit+0xb4>)
 8005468:	681b      	ldr	r3, [r3, #0]
 800546a:	2100      	movs	r1, #0
 800546c:	6001      	str	r1, [r0, #0]
 800546e:	4829      	ldr	r0, [pc, #164]	@ (8005514 <OS_TmrInit+0xb8>)
 8005470:	b08a      	sub	sp, #40	@ 0x28
 8005472:	6800      	ldr	r0, [r0, #0]
 8005474:	fbb3 f3f0 	udiv	r3, r3, r0
 8005478:	4630      	mov	r0, r6
 800547a:	6013      	str	r3, [r2, #0]
 800547c:	4622      	mov	r2, r4
 800547e:	f7ff f895 	bl	80045ac <OSMutexCreate>
 8005482:	8825      	ldrh	r5, [r4, #0]
 8005484:	b10d      	cbz	r5, 800548a <OS_TmrInit+0x2e>
 8005486:	b00a      	add	sp, #40	@ 0x28
 8005488:	bd70      	pop	{r4, r5, r6, pc}
 800548a:	2040      	movs	r0, #64	@ 0x40
 800548c:	f7fa fea0 	bl	80001d0 <CPU_SR_Save>
 8005490:	4b21      	ldr	r3, [pc, #132]	@ (8005518 <OS_TmrInit+0xbc>)
 8005492:	4a22      	ldr	r2, [pc, #136]	@ (800551c <OS_TmrInit+0xc0>)
 8005494:	60de      	str	r6, [r3, #12]
 8005496:	4606      	mov	r6, r0
 8005498:	1d18      	adds	r0, r3, #4
 800549a:	601a      	str	r2, [r3, #0]
 800549c:	f7fe fc70 	bl	8003d80 <OS_PendListInit>
 80054a0:	4630      	mov	r0, r6
 80054a2:	f7fa fea3 	bl	80001ec <CPU_SR_Restore>
 80054a6:	4b1e      	ldr	r3, [pc, #120]	@ (8005520 <OS_TmrInit+0xc4>)
 80054a8:	681b      	ldr	r3, [r3, #0]
 80054aa:	b33b      	cbz	r3, 80054fc <OS_TmrInit+0xa0>
 80054ac:	4a1d      	ldr	r2, [pc, #116]	@ (8005524 <OS_TmrInit+0xc8>)
 80054ae:	491e      	ldr	r1, [pc, #120]	@ (8005528 <OS_TmrInit+0xcc>)
 80054b0:	6812      	ldr	r2, [r2, #0]
 80054b2:	6809      	ldr	r1, [r1, #0]
 80054b4:	428a      	cmp	r2, r1
 80054b6:	d31c      	bcc.n	80054f2 <OS_TmrInit+0x96>
 80054b8:	491c      	ldr	r1, [pc, #112]	@ (800552c <OS_TmrInit+0xd0>)
 80054ba:	7809      	ldrb	r1, [r1, #0]
 80054bc:	291e      	cmp	r1, #30
 80054be:	d904      	bls.n	80054ca <OS_TmrInit+0x6e>
 80054c0:	f247 3346 	movw	r3, #29510	@ 0x7346
 80054c4:	8023      	strh	r3, [r4, #0]
 80054c6:	b00a      	add	sp, #40	@ 0x28
 80054c8:	bd70      	pop	{r4, r5, r6, pc}
 80054ca:	200b      	movs	r0, #11
 80054cc:	9007      	str	r0, [sp, #28]
 80054ce:	4818      	ldr	r0, [pc, #96]	@ (8005530 <OS_TmrInit+0xd4>)
 80054d0:	9408      	str	r4, [sp, #32]
 80054d2:	6800      	ldr	r0, [r0, #0]
 80054d4:	9506      	str	r5, [sp, #24]
 80054d6:	e9cd 0202 	strd	r0, r2, [sp, #8]
 80054da:	e9cd 1300 	strd	r1, r3, [sp]
 80054de:	e9cd 5504 	strd	r5, r5, [sp, #16]
 80054e2:	4a14      	ldr	r2, [pc, #80]	@ (8005534 <OS_TmrInit+0xd8>)
 80054e4:	4814      	ldr	r0, [pc, #80]	@ (8005538 <OS_TmrInit+0xdc>)
 80054e6:	462b      	mov	r3, r5
 80054e8:	4629      	mov	r1, r5
 80054ea:	f7ff fb09 	bl	8004b00 <OSTaskCreate>
 80054ee:	b00a      	add	sp, #40	@ 0x28
 80054f0:	bd70      	pop	{r4, r5, r6, pc}
 80054f2:	f247 3348 	movw	r3, #29512	@ 0x7348
 80054f6:	8023      	strh	r3, [r4, #0]
 80054f8:	b00a      	add	sp, #40	@ 0x28
 80054fa:	bd70      	pop	{r4, r5, r6, pc}
 80054fc:	f247 3347 	movw	r3, #29511	@ 0x7347
 8005500:	8023      	strh	r3, [r4, #0]
 8005502:	e7c0      	b.n	8005486 <OS_TmrInit+0x2a>
 8005504:	20001a08 	.word	0x20001a08
 8005508:	20001930 	.word	0x20001930
 800550c:	080059e4 	.word	0x080059e4
 8005510:	200019e0 	.word	0x200019e0
 8005514:	080059dc 	.word	0x080059dc
 8005518:	200019f8 	.word	0x200019f8
 800551c:	444e4f43 	.word	0x444e4f43
 8005520:	080059d8 	.word	0x080059d8
 8005524:	080059d0 	.word	0x080059d0
 8005528:	080059e8 	.word	0x080059e8
 800552c:	080059e0 	.word	0x080059e0
 8005530:	080059d4 	.word	0x080059d4
 8005534:	080056f5 	.word	0x080056f5
 8005538:	20001938 	.word	0x20001938

0800553c <OS_TmrLink>:
 800553c:	e92d 41f0 	stmdb	sp!, {r4, r5, r6, r7, r8, lr}
 8005540:	4e33      	ldr	r6, [pc, #204]	@ (8005610 <OS_TmrLink+0xd4>)
 8005542:	6834      	ldr	r4, [r6, #0]
 8005544:	b082      	sub	sp, #8
 8005546:	4605      	mov	r5, r0
 8005548:	2c00      	cmp	r4, #0
 800554a:	d048      	beq.n	80055de <OS_TmrLink+0xa2>
 800554c:	f8df c0cc 	ldr.w	ip, [pc, #204]	@ 800561c <OS_TmrLink+0xe0>
 8005550:	6940      	ldr	r0, [r0, #20]
 8005552:	f8dc 7000 	ldr.w	r7, [ip]
 8005556:	6963      	ldr	r3, [r4, #20]
 8005558:	4408      	add	r0, r1
 800555a:	1bc2      	subs	r2, r0, r7
 800555c:	429a      	cmp	r2, r3
 800555e:	d316      	bcc.n	800558e <OS_TmrLink+0x52>
 8005560:	68e1      	ldr	r1, [r4, #12]
 8005562:	1ad2      	subs	r2, r2, r3
 8005564:	b921      	cbnz	r1, 8005570 <OS_TmrLink+0x34>
 8005566:	e031      	b.n	80055cc <OS_TmrLink+0x90>
 8005568:	68cc      	ldr	r4, [r1, #12]
 800556a:	1ad2      	subs	r2, r2, r3
 800556c:	b37c      	cbz	r4, 80055ce <OS_TmrLink+0x92>
 800556e:	4621      	mov	r1, r4
 8005570:	694b      	ldr	r3, [r1, #20]
 8005572:	4293      	cmp	r3, r2
 8005574:	d9f8      	bls.n	8005568 <OS_TmrLink+0x2c>
 8005576:	6908      	ldr	r0, [r1, #16]
 8005578:	616a      	str	r2, [r5, #20]
 800557a:	694b      	ldr	r3, [r1, #20]
 800557c:	6128      	str	r0, [r5, #16]
 800557e:	1a9b      	subs	r3, r3, r2
 8005580:	60e9      	str	r1, [r5, #12]
 8005582:	e9c1 5304 	strd	r5, r3, [r1, #16]
 8005586:	60c5      	str	r5, [r0, #12]
 8005588:	b002      	add	sp, #8
 800558a:	e8bd 81f0 	ldmia.w	sp!, {r4, r5, r6, r7, r8, pc}
 800558e:	f8d4 8010 	ldr.w	r8, [r4, #16]
 8005592:	f1b8 0f00 	cmp.w	r8, #0
 8005596:	d1e3      	bne.n	8005560 <OS_TmrLink+0x24>
 8005598:	18fa      	adds	r2, r7, r3
 800559a:	1a12      	subs	r2, r2, r0
 800559c:	6162      	str	r2, [r4, #20]
 800559e:	2040      	movs	r0, #64	@ 0x40
 80055a0:	e9c5 4803 	strd	r4, r8, [r5, #12]
 80055a4:	6125      	str	r5, [r4, #16]
 80055a6:	f8cc 1000 	str.w	r1, [ip]
 80055aa:	6035      	str	r5, [r6, #0]
 80055ac:	f7fa fe10 	bl	80001d0 <CPU_SR_Save>
 80055b0:	4918      	ldr	r1, [pc, #96]	@ (8005614 <OS_TmrLink+0xd8>)
 80055b2:	684b      	ldr	r3, [r1, #4]
 80055b4:	4604      	mov	r4, r0
 80055b6:	b333      	cbz	r3, 8005606 <OS_TmrLink+0xca>
 80055b8:	4608      	mov	r0, r1
 80055ba:	f8cd 8000 	str.w	r8, [sp]
 80055be:	4916      	ldr	r1, [pc, #88]	@ (8005618 <OS_TmrLink+0xdc>)
 80055c0:	4643      	mov	r3, r8
 80055c2:	4642      	mov	r2, r8
 80055c4:	f7fe fbf8 	bl	8003db8 <OS_Post>
 80055c8:	4620      	mov	r0, r4
 80055ca:	e01c      	b.n	8005606 <OS_TmrLink+0xca>
 80055cc:	4621      	mov	r1, r4
 80055ce:	2300      	movs	r3, #0
 80055d0:	e9c5 1204 	strd	r1, r2, [r5, #16]
 80055d4:	60eb      	str	r3, [r5, #12]
 80055d6:	60cd      	str	r5, [r1, #12]
 80055d8:	b002      	add	sp, #8
 80055da:	e8bd 81f0 	ldmia.w	sp!, {r4, r5, r6, r7, r8, pc}
 80055de:	4b0f      	ldr	r3, [pc, #60]	@ (800561c <OS_TmrLink+0xe0>)
 80055e0:	6030      	str	r0, [r6, #0]
 80055e2:	e9c0 4403 	strd	r4, r4, [r0, #12]
 80055e6:	2040      	movs	r0, #64	@ 0x40
 80055e8:	6019      	str	r1, [r3, #0]
 80055ea:	f7fa fdf1 	bl	80001d0 <CPU_SR_Save>
 80055ee:	4909      	ldr	r1, [pc, #36]	@ (8005614 <OS_TmrLink+0xd8>)
 80055f0:	684b      	ldr	r3, [r1, #4]
 80055f2:	4605      	mov	r5, r0
 80055f4:	b13b      	cbz	r3, 8005606 <OS_TmrLink+0xca>
 80055f6:	4608      	mov	r0, r1
 80055f8:	9400      	str	r4, [sp, #0]
 80055fa:	4907      	ldr	r1, [pc, #28]	@ (8005618 <OS_TmrLink+0xdc>)
 80055fc:	4623      	mov	r3, r4
 80055fe:	4622      	mov	r2, r4
 8005600:	f7fe fbda 	bl	8003db8 <OS_Post>
 8005604:	4628      	mov	r0, r5
 8005606:	b002      	add	sp, #8
 8005608:	e8bd 41f0 	ldmia.w	sp!, {r4, r5, r6, r7, r8, lr}
 800560c:	f7fa bdee 	b.w	80001ec <CPU_SR_Restore>
 8005610:	20001a08 	.word	0x20001a08
 8005614:	200019f8 	.word	0x200019f8
 8005618:	20001938 	.word	0x20001938
 800561c:	20001934 	.word	0x20001934

08005620 <OS_TmrUnlink>:
 8005620:	b5f0      	push	{r4, r5, r6, r7, lr}
 8005622:	e9d0 6303 	ldrd	r6, r3, [r0, #12]
 8005626:	b083      	sub	sp, #12
 8005628:	4605      	mov	r5, r0
 800562a:	b163      	cbz	r3, 8005646 <OS_TmrUnlink+0x26>
 800562c:	60de      	str	r6, [r3, #12]
 800562e:	b126      	cbz	r6, 800563a <OS_TmrUnlink+0x1a>
 8005630:	6941      	ldr	r1, [r0, #20]
 8005632:	6972      	ldr	r2, [r6, #20]
 8005634:	6133      	str	r3, [r6, #16]
 8005636:	440a      	add	r2, r1
 8005638:	6172      	str	r2, [r6, #20]
 800563a:	2300      	movs	r3, #0
 800563c:	e9c5 3303 	strd	r3, r3, [r5, #12]
 8005640:	616b      	str	r3, [r5, #20]
 8005642:	b003      	add	sp, #12
 8005644:	bdf0      	pop	{r4, r5, r6, r7, pc}
 8005646:	2e00      	cmp	r6, #0
 8005648:	d032      	beq.n	80056b0 <OS_TmrUnlink+0x90>
 800564a:	6940      	ldr	r0, [r0, #20]
 800564c:	6972      	ldr	r2, [r6, #20]
 800564e:	4f25      	ldr	r7, [pc, #148]	@ (80056e4 <OS_TmrUnlink+0xc4>)
 8005650:	6133      	str	r3, [r6, #16]
 8005652:	4402      	add	r2, r0
 8005654:	4824      	ldr	r0, [pc, #144]	@ (80056e8 <OS_TmrUnlink+0xc8>)
 8005656:	6172      	str	r2, [r6, #20]
 8005658:	6006      	str	r6, [r0, #0]
 800565a:	6838      	ldr	r0, [r7, #0]
 800565c:	1a08      	subs	r0, r1, r0
 800565e:	d005      	beq.n	800566c <OS_TmrUnlink+0x4c>
 8005660:	4634      	mov	r4, r6
 8005662:	4282      	cmp	r2, r0
 8005664:	d31d      	bcc.n	80056a2 <OS_TmrUnlink+0x82>
 8005666:	1a12      	subs	r2, r2, r0
 8005668:	6162      	str	r2, [r4, #20]
 800566a:	6972      	ldr	r2, [r6, #20]
 800566c:	696b      	ldr	r3, [r5, #20]
 800566e:	4293      	cmp	r3, r2
 8005670:	d100      	bne.n	8005674 <OS_TmrUnlink+0x54>
 8005672:	b98a      	cbnz	r2, 8005698 <OS_TmrUnlink+0x78>
 8005674:	2040      	movs	r0, #64	@ 0x40
 8005676:	6039      	str	r1, [r7, #0]
 8005678:	f7fa fdaa 	bl	80001d0 <CPU_SR_Save>
 800567c:	491b      	ldr	r1, [pc, #108]	@ (80056ec <OS_TmrUnlink+0xcc>)
 800567e:	684b      	ldr	r3, [r1, #4]
 8005680:	4604      	mov	r4, r0
 8005682:	b13b      	cbz	r3, 8005694 <OS_TmrUnlink+0x74>
 8005684:	2300      	movs	r3, #0
 8005686:	4608      	mov	r0, r1
 8005688:	9300      	str	r3, [sp, #0]
 800568a:	4919      	ldr	r1, [pc, #100]	@ (80056f0 <OS_TmrUnlink+0xd0>)
 800568c:	461a      	mov	r2, r3
 800568e:	f7fe fb93 	bl	8003db8 <OS_Post>
 8005692:	4620      	mov	r0, r4
 8005694:	f7fa fdaa 	bl	80001ec <CPU_SR_Restore>
 8005698:	2300      	movs	r3, #0
 800569a:	60eb      	str	r3, [r5, #12]
 800569c:	616b      	str	r3, [r5, #20]
 800569e:	b003      	add	sp, #12
 80056a0:	bdf0      	pop	{r4, r5, r6, r7, pc}
 80056a2:	6163      	str	r3, [r4, #20]
 80056a4:	68e4      	ldr	r4, [r4, #12]
 80056a6:	1a80      	subs	r0, r0, r2
 80056a8:	2c00      	cmp	r4, #0
 80056aa:	d0de      	beq.n	800566a <OS_TmrUnlink+0x4a>
 80056ac:	6962      	ldr	r2, [r4, #20]
 80056ae:	e7d8      	b.n	8005662 <OS_TmrUnlink+0x42>
 80056b0:	4b0c      	ldr	r3, [pc, #48]	@ (80056e4 <OS_TmrUnlink+0xc4>)
 80056b2:	4a0d      	ldr	r2, [pc, #52]	@ (80056e8 <OS_TmrUnlink+0xc8>)
 80056b4:	6146      	str	r6, [r0, #20]
 80056b6:	2040      	movs	r0, #64	@ 0x40
 80056b8:	6019      	str	r1, [r3, #0]
 80056ba:	6016      	str	r6, [r2, #0]
 80056bc:	f7fa fd88 	bl	80001d0 <CPU_SR_Save>
 80056c0:	490a      	ldr	r1, [pc, #40]	@ (80056ec <OS_TmrUnlink+0xcc>)
 80056c2:	684b      	ldr	r3, [r1, #4]
 80056c4:	4604      	mov	r4, r0
 80056c6:	b13b      	cbz	r3, 80056d8 <OS_TmrUnlink+0xb8>
 80056c8:	4608      	mov	r0, r1
 80056ca:	9600      	str	r6, [sp, #0]
 80056cc:	4908      	ldr	r1, [pc, #32]	@ (80056f0 <OS_TmrUnlink+0xd0>)
 80056ce:	4633      	mov	r3, r6
 80056d0:	4632      	mov	r2, r6
 80056d2:	f7fe fb71 	bl	8003db8 <OS_Post>
 80056d6:	4620      	mov	r0, r4
 80056d8:	b003      	add	sp, #12
 80056da:	e8bd 40f0 	ldmia.w	sp!, {r4, r5, r6, r7, lr}
 80056de:	f7fa bd85 	b.w	80001ec <CPU_SR_Restore>
 80056e2:	bf00      	nop
 80056e4:	20001934 	.word	0x20001934
 80056e8:	20001a08 	.word	0x20001a08
 80056ec:	200019f8 	.word	0x200019f8
 80056f0:	20001938 	.word	0x20001938

080056f4 <OS_TmrTask>:
 80056f4:	e92d 4ff0 	stmdb	sp!, {r4, r5, r6, r7, r8, r9, sl, fp, lr}
 80056f8:	b085      	sub	sp, #20
 80056fa:	2300      	movs	r3, #0
 80056fc:	f10d 020e 	add.w	r2, sp, #14
 8005700:	4e66      	ldr	r6, [pc, #408]	@ (800589c <OS_TmrTask+0x1a8>)
 8005702:	9200      	str	r2, [sp, #0]
 8005704:	4866      	ldr	r0, [pc, #408]	@ (80058a0 <OS_TmrTask+0x1ac>)
 8005706:	4d67      	ldr	r5, [pc, #412]	@ (80058a4 <OS_TmrTask+0x1b0>)
 8005708:	4c65      	ldr	r4, [pc, #404]	@ (80058a0 <OS_TmrTask+0x1ac>)
 800570a:	f8df 91a8 	ldr.w	r9, [pc, #424]	@ 80058b4 <OS_TmrTask+0x1c0>
 800570e:	461a      	mov	r2, r3
 8005710:	4619      	mov	r1, r3
 8005712:	f7fe ff77 	bl	8004604 <OSMutexPend>
 8005716:	f8d6 a000 	ldr.w	sl, [r6]
 800571a:	4657      	mov	r7, sl
 800571c:	2f00      	cmp	r7, #0
 800571e:	f000 8090 	beq.w	8005842 <OS_TmrTask+0x14e>
 8005722:	f8d7 8014 	ldr.w	r8, [r7, #20]
 8005726:	2040      	movs	r0, #64	@ 0x40
 8005728:	f7fa fd52 	bl	80001d0 <CPU_SR_Save>
 800572c:	4621      	mov	r1, r4
 800572e:	4682      	mov	sl, r0
 8005730:	4628      	mov	r0, r5
 8005732:	f7ff f81d 	bl	8004770 <OS_MutexGrpRemove>
 8005736:	f895 2030 	ldrb.w	r2, [r5, #48]	@ 0x30
 800573a:	f895 302f 	ldrb.w	r3, [r5, #47]	@ 0x2f
 800573e:	4293      	cmp	r3, r2
 8005740:	d003      	beq.n	800574a <OS_TmrTask+0x56>
 8005742:	4b59      	ldr	r3, [pc, #356]	@ (80058a8 <OS_TmrTask+0x1b4>)
 8005744:	f885 202f 	strb.w	r2, [r5, #47]	@ 0x2f
 8005748:	701a      	strb	r2, [r3, #0]
 800574a:	6867      	ldr	r7, [r4, #4]
 800574c:	2f00      	cmp	r7, #0
 800574e:	f000 8082 	beq.w	8005856 <OS_TmrTask+0x162>
 8005752:	2301      	movs	r3, #1
 8005754:	4621      	mov	r1, r4
 8005756:	4638      	mov	r0, r7
 8005758:	7523      	strb	r3, [r4, #20]
 800575a:	6127      	str	r7, [r4, #16]
 800575c:	f7ff f804 	bl	8004768 <OS_MutexGrpAdd>
 8005760:	2300      	movs	r3, #0
 8005762:	9300      	str	r3, [sp, #0]
 8005764:	461a      	mov	r2, r3
 8005766:	4639      	mov	r1, r7
 8005768:	4620      	mov	r0, r4
 800576a:	f7fe fb25 	bl	8003db8 <OS_Post>
 800576e:	4643      	mov	r3, r8
 8005770:	2203      	movs	r2, #3
 8005772:	4629      	mov	r1, r5
 8005774:	484d      	ldr	r0, [pc, #308]	@ (80058ac <OS_TmrTask+0x1b8>)
 8005776:	f7fe fa6d 	bl	8003c54 <OS_Pend>
 800577a:	4650      	mov	r0, sl
 800577c:	f7fa fd36 	bl	80001ec <CPU_SR_Restore>
 8005780:	f7fe f9e6 	bl	8003b50 <OSSched>
 8005784:	2040      	movs	r0, #64	@ 0x40
 8005786:	f7fa fd23 	bl	80001d0 <CPU_SR_Save>
 800578a:	6923      	ldr	r3, [r4, #16]
 800578c:	4607      	mov	r7, r0
 800578e:	2b00      	cmp	r3, #0
 8005790:	d068      	beq.n	8005864 <OS_TmrTask+0x170>
 8005792:	f895 102f 	ldrb.w	r1, [r5, #47]	@ 0x2f
 8005796:	f893 202f 	ldrb.w	r2, [r3, #47]	@ 0x2f
 800579a:	428a      	cmp	r2, r1
 800579c:	d85e      	bhi.n	800585c <OS_TmrTask+0x168>
 800579e:	2300      	movs	r3, #0
 80057a0:	2204      	movs	r2, #4
 80057a2:	4629      	mov	r1, r5
 80057a4:	4620      	mov	r0, r4
 80057a6:	f7fe fa55 	bl	8003c54 <OS_Pend>
 80057aa:	4638      	mov	r0, r7
 80057ac:	f7fa fd1e 	bl	80001ec <CPU_SR_Restore>
 80057b0:	f7fe f9ce 	bl	8003b50 <OSSched>
 80057b4:	6832      	ldr	r2, [r6, #0]
 80057b6:	f04f 0800 	mov.w	r8, #0
 80057ba:	2a00      	cmp	r2, #0
 80057bc:	d0b3      	beq.n	8005726 <OS_TmrTask+0x32>
 80057be:	2040      	movs	r0, #64	@ 0x40
 80057c0:	f7fa fd06 	bl	80001d0 <CPU_SR_Save>
 80057c4:	4b3a      	ldr	r3, [pc, #232]	@ (80058b0 <OS_TmrTask+0x1bc>)
 80057c6:	681f      	ldr	r7, [r3, #0]
 80057c8:	f7fa fd10 	bl	80001ec <CPU_SR_Restore>
 80057cc:	f8d9 3000 	ldr.w	r3, [r9]
 80057d0:	6832      	ldr	r2, [r6, #0]
 80057d2:	f8c9 7000 	str.w	r7, [r9]
 80057d6:	ebb7 0803 	subs.w	r8, r7, r3
 80057da:	d058      	beq.n	800588e <OS_TmrTask+0x19a>
 80057dc:	2a00      	cmp	r2, #0
 80057de:	d05b      	beq.n	8005898 <OS_TmrTask+0x1a4>
 80057e0:	4617      	mov	r7, r2
 80057e2:	2100      	movs	r1, #0
 80057e4:	6953      	ldr	r3, [r2, #20]
 80057e6:	4543      	cmp	r3, r8
 80057e8:	d32e      	bcc.n	8005848 <OS_TmrTask+0x154>
 80057ea:	eba3 0308 	sub.w	r3, r3, r8
 80057ee:	6153      	str	r3, [r2, #20]
 80057f0:	f04f 0804 	mov.w	r8, #4
 80057f4:	f04f 0a00 	mov.w	sl, #0
 80057f8:	f04f 0b03 	mov.w	fp, #3
 80057fc:	e007      	b.n	800580e <OS_TmrTask+0x11a>
 80057fe:	68b9      	ldr	r1, [r7, #8]
 8005800:	4798      	blx	r3
 8005802:	f897 3022 	ldrb.w	r3, [r7, #34]	@ 0x22
 8005806:	2b04      	cmp	r3, #4
 8005808:	d00a      	beq.n	8005820 <OS_TmrTask+0x12c>
 800580a:	6837      	ldr	r7, [r6, #0]
 800580c:	b1cf      	cbz	r7, 8005842 <OS_TmrTask+0x14e>
 800580e:	697b      	ldr	r3, [r7, #20]
 8005810:	4638      	mov	r0, r7
 8005812:	2b00      	cmp	r3, #0
 8005814:	d182      	bne.n	800571c <OS_TmrTask+0x28>
 8005816:	687b      	ldr	r3, [r7, #4]
 8005818:	f887 8022 	strb.w	r8, [r7, #34]	@ 0x22
 800581c:	2b00      	cmp	r3, #0
 800581e:	d1ee      	bne.n	80057fe <OS_TmrTask+0x10a>
 8005820:	f8d9 1000 	ldr.w	r1, [r9]
 8005824:	4638      	mov	r0, r7
 8005826:	f7ff fefb 	bl	8005620 <OS_TmrUnlink>
 800582a:	8c3b      	ldrh	r3, [r7, #32]
 800582c:	2b02      	cmp	r3, #2
 800582e:	d024      	beq.n	800587a <OS_TmrTask+0x186>
 8005830:	e9c7 aa03 	strd	sl, sl, [r7, #12]
 8005834:	f8c7 a014 	str.w	sl, [r7, #20]
 8005838:	f887 b022 	strb.w	fp, [r7, #34]	@ 0x22
 800583c:	6837      	ldr	r7, [r6, #0]
 800583e:	2f00      	cmp	r7, #0
 8005840:	d1e5      	bne.n	800580e <OS_TmrTask+0x11a>
 8005842:	f04f 0800 	mov.w	r8, #0
 8005846:	e76e      	b.n	8005726 <OS_TmrTask+0x32>
 8005848:	6151      	str	r1, [r2, #20]
 800584a:	68d2      	ldr	r2, [r2, #12]
 800584c:	eba8 0803 	sub.w	r8, r8, r3
 8005850:	2a00      	cmp	r2, #0
 8005852:	d1c7      	bne.n	80057e4 <OS_TmrTask+0xf0>
 8005854:	e7cc      	b.n	80057f0 <OS_TmrTask+0xfc>
 8005856:	6127      	str	r7, [r4, #16]
 8005858:	7527      	strb	r7, [r4, #20]
 800585a:	e788      	b.n	800576e <OS_TmrTask+0x7a>
 800585c:	4618      	mov	r0, r3
 800585e:	f7ff fa4f 	bl	8004d00 <OS_TaskChangePrio>
 8005862:	e79c      	b.n	800579e <OS_TmrTask+0xaa>
 8005864:	4628      	mov	r0, r5
 8005866:	4621      	mov	r1, r4
 8005868:	f7fe ff7e 	bl	8004768 <OS_MutexGrpAdd>
 800586c:	2301      	movs	r3, #1
 800586e:	4638      	mov	r0, r7
 8005870:	6125      	str	r5, [r4, #16]
 8005872:	7523      	strb	r3, [r4, #20]
 8005874:	f7fa fcba 	bl	80001ec <CPU_SR_Restore>
 8005878:	e79c      	b.n	80057b4 <OS_TmrTask+0xc0>
 800587a:	69fa      	ldr	r2, [r7, #28]
 800587c:	f8d9 1000 	ldr.w	r1, [r9]
 8005880:	f887 3022 	strb.w	r3, [r7, #34]	@ 0x22
 8005884:	617a      	str	r2, [r7, #20]
 8005886:	4638      	mov	r0, r7
 8005888:	f7ff fe58 	bl	800553c <OS_TmrLink>
 800588c:	e7bd      	b.n	800580a <OS_TmrTask+0x116>
 800588e:	2a00      	cmp	r2, #0
 8005890:	f43f af49 	beq.w	8005726 <OS_TmrTask+0x32>
 8005894:	4617      	mov	r7, r2
 8005896:	e7ab      	b.n	80057f0 <OS_TmrTask+0xfc>
 8005898:	4690      	mov	r8, r2
 800589a:	e744      	b.n	8005726 <OS_TmrTask+0x32>
 800589c:	20001a08 	.word	0x20001a08
 80058a0:	200019e0 	.word	0x200019e0
 80058a4:	20001938 	.word	0x20001938
 80058a8:	20001be9 	.word	0x20001be9
 80058ac:	200019f8 	.word	0x200019f8
 80058b0:	20001a10 	.word	0x20001a10
 80058b4:	20001934 	.word	0x20001934

080058b8 <memset>:
 80058b8:	4402      	add	r2, r0
 80058ba:	4603      	mov	r3, r0
 80058bc:	4293      	cmp	r3, r2
 80058be:	d100      	bne.n	80058c2 <memset+0xa>
 80058c0:	4770      	bx	lr
 80058c2:	f803 1b01 	strb.w	r1, [r3], #1
 80058c6:	e7f9      	b.n	80058bc <memset+0x4>

080058c8 <__libc_init_array>:
 80058c8:	b570      	push	{r4, r5, r6, lr}
 80058ca:	4d0d      	ldr	r5, [pc, #52]	@ (8005900 <__libc_init_array+0x38>)
 80058cc:	4c0d      	ldr	r4, [pc, #52]	@ (8005904 <__libc_init_array+0x3c>)
 80058ce:	1b64      	subs	r4, r4, r5
 80058d0:	10a4      	asrs	r4, r4, #2
 80058d2:	2600      	movs	r6, #0
 80058d4:	42a6      	cmp	r6, r4
 80058d6:	d109      	bne.n	80058ec <__libc_init_array+0x24>
 80058d8:	4d0b      	ldr	r5, [pc, #44]	@ (8005908 <__libc_init_array+0x40>)
 80058da:	4c0c      	ldr	r4, [pc, #48]	@ (800590c <__libc_init_array+0x44>)
 80058dc:	f000 f818 	bl	8005910 <_init>
 80058e0:	1b64      	subs	r4, r4, r5
 80058e2:	10a4      	asrs	r4, r4, #2
 80058e4:	2600      	movs	r6, #0
 80058e6:	42a6      	cmp	r6, r4
 80058e8:	d105      	bne.n	80058f6 <__libc_init_array+0x2e>
 80058ea:	bd70      	pop	{r4, r5, r6, pc}
 80058ec:	f855 3b04 	ldr.w	r3, [r5], #4
 80058f0:	4798      	blx	r3
 80058f2:	3601      	adds	r6, #1
 80058f4:	e7ee      	b.n	80058d4 <__libc_init_array+0xc>
 80058f6:	f855 3b04 	ldr.w	r3, [r5], #4
 80058fa:	4798      	blx	r3
 80058fc:	3601      	adds	r6, #1
 80058fe:	e7f2      	b.n	80058e6 <__libc_init_array+0x1e>
 8005900:	08005a24 	.word	0x08005a24
 8005904:	08005a24 	.word	0x08005a24
 8005908:	08005a24 	.word	0x08005a24
 800590c:	08005a28 	.word	0x08005a28

08005910 <_init>:
 8005910:	b5f8      	push	{r3, r4, r5, r6, r7, lr}
 8005912:	bf00      	nop
 8005914:	bcf8      	pop	{r3, r4, r5, r6, r7}
 8005916:	bc08      	pop	{r3}
 8005918:	469e      	mov	lr, r3
 800591a:	4770      	bx	lr

0800591c <_fini>:
 800591c:	b5f8      	push	{r3, r4, r5, r6, r7, lr}
 800591e:	bf00      	nop
 8005920:	bcf8      	pop	{r3, r4, r5, r6, r7}
 8005922:	bc08      	pop	{r3}
 8005924:	469e      	mov	lr, r3
 8005926:	4770      	bx	lr
